ARM GAS  /tmp/ccJA6ppf.s 			page 1


   1              		.cpu cortex-m3
   2              		.eabi_attribute 20, 1
   3              		.eabi_attribute 21, 1
   4              		.eabi_attribute 23, 3
   5              		.eabi_attribute 24, 1
   6              		.eabi_attribute 25, 1
   7              		.eabi_attribute 26, 1
   8              		.eabi_attribute 30, 1
   9              		.eabi_attribute 34, 1
  10              		.eabi_attribute 18, 4
  11              		.file	"stm32f1xx_hal_pwr.c"
  12              		.text
  13              	.Ltext0:
  14              		.cfi_sections	.debug_frame
  15              		.section	.text.PWR_OverloadWfe,"ax",%progbits
  16              		.align	1
  17              		.syntax unified
  18              		.thumb
  19              		.thumb_func
  20              		.fpu softvfp
  22              	PWR_OverloadWfe:
  23              	.LFB64:
  24              		.file 1 "Drivers/STM32Cube_FW_F1_V1.4.0/STM32F1xx_HAL_Driver/Src/stm32f1xx_hal_pwr.c"
   1:Drivers/STM32Cube_FW_F1_V1.4.0/STM32F1xx_HAL_Driver/Src/stm32f1xx_hal_pwr.c **** /**
   2:Drivers/STM32Cube_FW_F1_V1.4.0/STM32F1xx_HAL_Driver/Src/stm32f1xx_hal_pwr.c ****   ******************************************************************************
   3:Drivers/STM32Cube_FW_F1_V1.4.0/STM32F1xx_HAL_Driver/Src/stm32f1xx_hal_pwr.c ****   * @file    stm32f1xx_hal_pwr.c
   4:Drivers/STM32Cube_FW_F1_V1.4.0/STM32F1xx_HAL_Driver/Src/stm32f1xx_hal_pwr.c ****   * @author  MCD Application Team
   5:Drivers/STM32Cube_FW_F1_V1.4.0/STM32F1xx_HAL_Driver/Src/stm32f1xx_hal_pwr.c ****   * @version V1.0.4
   6:Drivers/STM32Cube_FW_F1_V1.4.0/STM32F1xx_HAL_Driver/Src/stm32f1xx_hal_pwr.c ****   * @date    29-April-2016
   7:Drivers/STM32Cube_FW_F1_V1.4.0/STM32F1xx_HAL_Driver/Src/stm32f1xx_hal_pwr.c ****   * @brief   PWR HAL module driver.
   8:Drivers/STM32Cube_FW_F1_V1.4.0/STM32F1xx_HAL_Driver/Src/stm32f1xx_hal_pwr.c ****   *
   9:Drivers/STM32Cube_FW_F1_V1.4.0/STM32F1xx_HAL_Driver/Src/stm32f1xx_hal_pwr.c ****   *          This file provides firmware functions to manage the following
  10:Drivers/STM32Cube_FW_F1_V1.4.0/STM32F1xx_HAL_Driver/Src/stm32f1xx_hal_pwr.c ****   *          functionalities of the Power Controller (PWR) peripheral:
  11:Drivers/STM32Cube_FW_F1_V1.4.0/STM32F1xx_HAL_Driver/Src/stm32f1xx_hal_pwr.c ****   *           + Initialization/de-initialization functions
  12:Drivers/STM32Cube_FW_F1_V1.4.0/STM32F1xx_HAL_Driver/Src/stm32f1xx_hal_pwr.c ****   *           + Peripheral Control functions 
  13:Drivers/STM32Cube_FW_F1_V1.4.0/STM32F1xx_HAL_Driver/Src/stm32f1xx_hal_pwr.c ****   *
  14:Drivers/STM32Cube_FW_F1_V1.4.0/STM32F1xx_HAL_Driver/Src/stm32f1xx_hal_pwr.c ****   ******************************************************************************
  15:Drivers/STM32Cube_FW_F1_V1.4.0/STM32F1xx_HAL_Driver/Src/stm32f1xx_hal_pwr.c ****   * @attention
  16:Drivers/STM32Cube_FW_F1_V1.4.0/STM32F1xx_HAL_Driver/Src/stm32f1xx_hal_pwr.c ****   *
  17:Drivers/STM32Cube_FW_F1_V1.4.0/STM32F1xx_HAL_Driver/Src/stm32f1xx_hal_pwr.c ****   * <h2><center>&copy; COPYRIGHT(c) 2016 STMicroelectronics</center></h2>
  18:Drivers/STM32Cube_FW_F1_V1.4.0/STM32F1xx_HAL_Driver/Src/stm32f1xx_hal_pwr.c ****   *
  19:Drivers/STM32Cube_FW_F1_V1.4.0/STM32F1xx_HAL_Driver/Src/stm32f1xx_hal_pwr.c ****   * Redistribution and use in source and binary forms, with or without modification,
  20:Drivers/STM32Cube_FW_F1_V1.4.0/STM32F1xx_HAL_Driver/Src/stm32f1xx_hal_pwr.c ****   * are permitted provided that the following conditions are met:
  21:Drivers/STM32Cube_FW_F1_V1.4.0/STM32F1xx_HAL_Driver/Src/stm32f1xx_hal_pwr.c ****   *   1. Redistributions of source code must retain the above copyright notice,
  22:Drivers/STM32Cube_FW_F1_V1.4.0/STM32F1xx_HAL_Driver/Src/stm32f1xx_hal_pwr.c ****   *      this list of conditions and the following disclaimer.
  23:Drivers/STM32Cube_FW_F1_V1.4.0/STM32F1xx_HAL_Driver/Src/stm32f1xx_hal_pwr.c ****   *   2. Redistributions in binary form must reproduce the above copyright notice,
  24:Drivers/STM32Cube_FW_F1_V1.4.0/STM32F1xx_HAL_Driver/Src/stm32f1xx_hal_pwr.c ****   *      this list of conditions and the following disclaimer in the documentation
  25:Drivers/STM32Cube_FW_F1_V1.4.0/STM32F1xx_HAL_Driver/Src/stm32f1xx_hal_pwr.c ****   *      and/or other materials provided with the distribution.
  26:Drivers/STM32Cube_FW_F1_V1.4.0/STM32F1xx_HAL_Driver/Src/stm32f1xx_hal_pwr.c ****   *   3. Neither the name of STMicroelectronics nor the names of its contributors
  27:Drivers/STM32Cube_FW_F1_V1.4.0/STM32F1xx_HAL_Driver/Src/stm32f1xx_hal_pwr.c ****   *      may be used to endorse or promote products derived from this software
  28:Drivers/STM32Cube_FW_F1_V1.4.0/STM32F1xx_HAL_Driver/Src/stm32f1xx_hal_pwr.c ****   *      without specific prior written permission.
  29:Drivers/STM32Cube_FW_F1_V1.4.0/STM32F1xx_HAL_Driver/Src/stm32f1xx_hal_pwr.c ****   *
  30:Drivers/STM32Cube_FW_F1_V1.4.0/STM32F1xx_HAL_Driver/Src/stm32f1xx_hal_pwr.c ****   * THIS SOFTWARE IS PROVIDED BY THE COPYRIGHT HOLDERS AND CONTRIBUTORS "AS IS"
  31:Drivers/STM32Cube_FW_F1_V1.4.0/STM32F1xx_HAL_Driver/Src/stm32f1xx_hal_pwr.c ****   * AND ANY EXPRESS OR IMPLIED WARRANTIES, INCLUDING, BUT NOT LIMITED TO, THE
  32:Drivers/STM32Cube_FW_F1_V1.4.0/STM32F1xx_HAL_Driver/Src/stm32f1xx_hal_pwr.c ****   * IMPLIED WARRANTIES OF MERCHANTABILITY AND FITNESS FOR A PARTICULAR PURPOSE ARE
  33:Drivers/STM32Cube_FW_F1_V1.4.0/STM32F1xx_HAL_Driver/Src/stm32f1xx_hal_pwr.c ****   * DISCLAIMED. IN NO EVENT SHALL THE COPYRIGHT HOLDER OR CONTRIBUTORS BE LIABLE
  34:Drivers/STM32Cube_FW_F1_V1.4.0/STM32F1xx_HAL_Driver/Src/stm32f1xx_hal_pwr.c ****   * FOR ANY DIRECT, INDIRECT, INCIDENTAL, SPECIAL, EXEMPLARY, OR CONSEQUENTIAL
ARM GAS  /tmp/ccJA6ppf.s 			page 2


  35:Drivers/STM32Cube_FW_F1_V1.4.0/STM32F1xx_HAL_Driver/Src/stm32f1xx_hal_pwr.c ****   * DAMAGES (INCLUDING, BUT NOT LIMITED TO, PROCUREMENT OF SUBSTITUTE GOODS OR
  36:Drivers/STM32Cube_FW_F1_V1.4.0/STM32F1xx_HAL_Driver/Src/stm32f1xx_hal_pwr.c ****   * SERVICES; LOSS OF USE, DATA, OR PROFITS; OR BUSINESS INTERRUPTION) HOWEVER
  37:Drivers/STM32Cube_FW_F1_V1.4.0/STM32F1xx_HAL_Driver/Src/stm32f1xx_hal_pwr.c ****   * CAUSED AND ON ANY THEORY OF LIABILITY, WHETHER IN CONTRACT, STRICT LIABILITY,
  38:Drivers/STM32Cube_FW_F1_V1.4.0/STM32F1xx_HAL_Driver/Src/stm32f1xx_hal_pwr.c ****   * OR TORT (INCLUDING NEGLIGENCE OR OTHERWISE) ARISING IN ANY WAY OUT OF THE USE
  39:Drivers/STM32Cube_FW_F1_V1.4.0/STM32F1xx_HAL_Driver/Src/stm32f1xx_hal_pwr.c ****   * OF THIS SOFTWARE, EVEN IF ADVISED OF THE POSSIBILITY OF SUCH DAMAGE.
  40:Drivers/STM32Cube_FW_F1_V1.4.0/STM32F1xx_HAL_Driver/Src/stm32f1xx_hal_pwr.c ****   *
  41:Drivers/STM32Cube_FW_F1_V1.4.0/STM32F1xx_HAL_Driver/Src/stm32f1xx_hal_pwr.c ****   ******************************************************************************
  42:Drivers/STM32Cube_FW_F1_V1.4.0/STM32F1xx_HAL_Driver/Src/stm32f1xx_hal_pwr.c ****   */
  43:Drivers/STM32Cube_FW_F1_V1.4.0/STM32F1xx_HAL_Driver/Src/stm32f1xx_hal_pwr.c **** 
  44:Drivers/STM32Cube_FW_F1_V1.4.0/STM32F1xx_HAL_Driver/Src/stm32f1xx_hal_pwr.c **** /* Includes ------------------------------------------------------------------*/
  45:Drivers/STM32Cube_FW_F1_V1.4.0/STM32F1xx_HAL_Driver/Src/stm32f1xx_hal_pwr.c **** #include "stm32f1xx_hal.h"
  46:Drivers/STM32Cube_FW_F1_V1.4.0/STM32F1xx_HAL_Driver/Src/stm32f1xx_hal_pwr.c **** 
  47:Drivers/STM32Cube_FW_F1_V1.4.0/STM32F1xx_HAL_Driver/Src/stm32f1xx_hal_pwr.c **** /** @addtogroup STM32F1xx_HAL_Driver
  48:Drivers/STM32Cube_FW_F1_V1.4.0/STM32F1xx_HAL_Driver/Src/stm32f1xx_hal_pwr.c ****   * @{
  49:Drivers/STM32Cube_FW_F1_V1.4.0/STM32F1xx_HAL_Driver/Src/stm32f1xx_hal_pwr.c ****   */
  50:Drivers/STM32Cube_FW_F1_V1.4.0/STM32F1xx_HAL_Driver/Src/stm32f1xx_hal_pwr.c **** 
  51:Drivers/STM32Cube_FW_F1_V1.4.0/STM32F1xx_HAL_Driver/Src/stm32f1xx_hal_pwr.c **** /** @defgroup PWR PWR
  52:Drivers/STM32Cube_FW_F1_V1.4.0/STM32F1xx_HAL_Driver/Src/stm32f1xx_hal_pwr.c ****   * @brief    PWR HAL module driver
  53:Drivers/STM32Cube_FW_F1_V1.4.0/STM32F1xx_HAL_Driver/Src/stm32f1xx_hal_pwr.c ****   * @{
  54:Drivers/STM32Cube_FW_F1_V1.4.0/STM32F1xx_HAL_Driver/Src/stm32f1xx_hal_pwr.c ****   */
  55:Drivers/STM32Cube_FW_F1_V1.4.0/STM32F1xx_HAL_Driver/Src/stm32f1xx_hal_pwr.c **** 
  56:Drivers/STM32Cube_FW_F1_V1.4.0/STM32F1xx_HAL_Driver/Src/stm32f1xx_hal_pwr.c **** #ifdef HAL_PWR_MODULE_ENABLED
  57:Drivers/STM32Cube_FW_F1_V1.4.0/STM32F1xx_HAL_Driver/Src/stm32f1xx_hal_pwr.c **** 
  58:Drivers/STM32Cube_FW_F1_V1.4.0/STM32F1xx_HAL_Driver/Src/stm32f1xx_hal_pwr.c **** /* Private typedef -----------------------------------------------------------*/
  59:Drivers/STM32Cube_FW_F1_V1.4.0/STM32F1xx_HAL_Driver/Src/stm32f1xx_hal_pwr.c **** /* Private define ------------------------------------------------------------*/
  60:Drivers/STM32Cube_FW_F1_V1.4.0/STM32F1xx_HAL_Driver/Src/stm32f1xx_hal_pwr.c **** 
  61:Drivers/STM32Cube_FW_F1_V1.4.0/STM32F1xx_HAL_Driver/Src/stm32f1xx_hal_pwr.c **** /** @defgroup PWR_Private_Constants PWR Private Constants
  62:Drivers/STM32Cube_FW_F1_V1.4.0/STM32F1xx_HAL_Driver/Src/stm32f1xx_hal_pwr.c ****   * @{
  63:Drivers/STM32Cube_FW_F1_V1.4.0/STM32F1xx_HAL_Driver/Src/stm32f1xx_hal_pwr.c ****   */
  64:Drivers/STM32Cube_FW_F1_V1.4.0/STM32F1xx_HAL_Driver/Src/stm32f1xx_hal_pwr.c ****   
  65:Drivers/STM32Cube_FW_F1_V1.4.0/STM32F1xx_HAL_Driver/Src/stm32f1xx_hal_pwr.c **** /** @defgroup PWR_PVD_Mode_Mask PWR PVD Mode Mask
  66:Drivers/STM32Cube_FW_F1_V1.4.0/STM32F1xx_HAL_Driver/Src/stm32f1xx_hal_pwr.c ****   * @{
  67:Drivers/STM32Cube_FW_F1_V1.4.0/STM32F1xx_HAL_Driver/Src/stm32f1xx_hal_pwr.c ****   */ 
  68:Drivers/STM32Cube_FW_F1_V1.4.0/STM32F1xx_HAL_Driver/Src/stm32f1xx_hal_pwr.c **** #define PVD_MODE_IT               ((uint32_t)0x00010000)
  69:Drivers/STM32Cube_FW_F1_V1.4.0/STM32F1xx_HAL_Driver/Src/stm32f1xx_hal_pwr.c **** #define PVD_MODE_EVT              ((uint32_t)0x00020000)
  70:Drivers/STM32Cube_FW_F1_V1.4.0/STM32F1xx_HAL_Driver/Src/stm32f1xx_hal_pwr.c **** #define PVD_RISING_EDGE           ((uint32_t)0x00000001)
  71:Drivers/STM32Cube_FW_F1_V1.4.0/STM32F1xx_HAL_Driver/Src/stm32f1xx_hal_pwr.c **** #define PVD_FALLING_EDGE          ((uint32_t)0x00000002)
  72:Drivers/STM32Cube_FW_F1_V1.4.0/STM32F1xx_HAL_Driver/Src/stm32f1xx_hal_pwr.c **** /**
  73:Drivers/STM32Cube_FW_F1_V1.4.0/STM32F1xx_HAL_Driver/Src/stm32f1xx_hal_pwr.c ****   * @}
  74:Drivers/STM32Cube_FW_F1_V1.4.0/STM32F1xx_HAL_Driver/Src/stm32f1xx_hal_pwr.c ****   */
  75:Drivers/STM32Cube_FW_F1_V1.4.0/STM32F1xx_HAL_Driver/Src/stm32f1xx_hal_pwr.c **** 
  76:Drivers/STM32Cube_FW_F1_V1.4.0/STM32F1xx_HAL_Driver/Src/stm32f1xx_hal_pwr.c **** 
  77:Drivers/STM32Cube_FW_F1_V1.4.0/STM32F1xx_HAL_Driver/Src/stm32f1xx_hal_pwr.c **** /** @defgroup PWR_register_alias_address PWR Register alias address
  78:Drivers/STM32Cube_FW_F1_V1.4.0/STM32F1xx_HAL_Driver/Src/stm32f1xx_hal_pwr.c ****   * @{
  79:Drivers/STM32Cube_FW_F1_V1.4.0/STM32F1xx_HAL_Driver/Src/stm32f1xx_hal_pwr.c ****   */ 
  80:Drivers/STM32Cube_FW_F1_V1.4.0/STM32F1xx_HAL_Driver/Src/stm32f1xx_hal_pwr.c **** /* ------------- PWR registers bit address in the alias region ---------------*/
  81:Drivers/STM32Cube_FW_F1_V1.4.0/STM32F1xx_HAL_Driver/Src/stm32f1xx_hal_pwr.c **** #define PWR_OFFSET               (PWR_BASE - PERIPH_BASE)
  82:Drivers/STM32Cube_FW_F1_V1.4.0/STM32F1xx_HAL_Driver/Src/stm32f1xx_hal_pwr.c **** #define PWR_CR_OFFSET            0x00
  83:Drivers/STM32Cube_FW_F1_V1.4.0/STM32F1xx_HAL_Driver/Src/stm32f1xx_hal_pwr.c **** #define PWR_CSR_OFFSET           0x04
  84:Drivers/STM32Cube_FW_F1_V1.4.0/STM32F1xx_HAL_Driver/Src/stm32f1xx_hal_pwr.c **** #define PWR_CR_OFFSET_BB         (PWR_OFFSET + PWR_CR_OFFSET)
  85:Drivers/STM32Cube_FW_F1_V1.4.0/STM32F1xx_HAL_Driver/Src/stm32f1xx_hal_pwr.c **** #define PWR_CSR_OFFSET_BB        (PWR_OFFSET + PWR_CSR_OFFSET)
  86:Drivers/STM32Cube_FW_F1_V1.4.0/STM32F1xx_HAL_Driver/Src/stm32f1xx_hal_pwr.c **** /**
  87:Drivers/STM32Cube_FW_F1_V1.4.0/STM32F1xx_HAL_Driver/Src/stm32f1xx_hal_pwr.c ****   * @}
  88:Drivers/STM32Cube_FW_F1_V1.4.0/STM32F1xx_HAL_Driver/Src/stm32f1xx_hal_pwr.c ****   */
  89:Drivers/STM32Cube_FW_F1_V1.4.0/STM32F1xx_HAL_Driver/Src/stm32f1xx_hal_pwr.c ****    
  90:Drivers/STM32Cube_FW_F1_V1.4.0/STM32F1xx_HAL_Driver/Src/stm32f1xx_hal_pwr.c **** /** @defgroup PWR_CR_register_alias PWR CR Register alias address
  91:Drivers/STM32Cube_FW_F1_V1.4.0/STM32F1xx_HAL_Driver/Src/stm32f1xx_hal_pwr.c ****   * @{
ARM GAS  /tmp/ccJA6ppf.s 			page 3


  92:Drivers/STM32Cube_FW_F1_V1.4.0/STM32F1xx_HAL_Driver/Src/stm32f1xx_hal_pwr.c ****   */  
  93:Drivers/STM32Cube_FW_F1_V1.4.0/STM32F1xx_HAL_Driver/Src/stm32f1xx_hal_pwr.c **** /* --- CR Register ---*/
  94:Drivers/STM32Cube_FW_F1_V1.4.0/STM32F1xx_HAL_Driver/Src/stm32f1xx_hal_pwr.c **** /* Alias word address of LPSDSR bit */
  95:Drivers/STM32Cube_FW_F1_V1.4.0/STM32F1xx_HAL_Driver/Src/stm32f1xx_hal_pwr.c **** #define LPSDSR_BIT_NUMBER        POSITION_VAL(PWR_CR_LPDS)
  96:Drivers/STM32Cube_FW_F1_V1.4.0/STM32F1xx_HAL_Driver/Src/stm32f1xx_hal_pwr.c **** #define CR_LPSDSR_BB             ((uint32_t)(PERIPH_BB_BASE + (PWR_CR_OFFSET_BB * 32) + (LPSDSR_BIT
  97:Drivers/STM32Cube_FW_F1_V1.4.0/STM32F1xx_HAL_Driver/Src/stm32f1xx_hal_pwr.c **** 
  98:Drivers/STM32Cube_FW_F1_V1.4.0/STM32F1xx_HAL_Driver/Src/stm32f1xx_hal_pwr.c **** /* Alias word address of DBP bit */
  99:Drivers/STM32Cube_FW_F1_V1.4.0/STM32F1xx_HAL_Driver/Src/stm32f1xx_hal_pwr.c **** #define DBP_BIT_NUMBER            POSITION_VAL(PWR_CR_DBP)
 100:Drivers/STM32Cube_FW_F1_V1.4.0/STM32F1xx_HAL_Driver/Src/stm32f1xx_hal_pwr.c **** #define CR_DBP_BB                ((uint32_t)(PERIPH_BB_BASE + (PWR_CR_OFFSET_BB * 32) + (DBP_BIT_NU
 101:Drivers/STM32Cube_FW_F1_V1.4.0/STM32F1xx_HAL_Driver/Src/stm32f1xx_hal_pwr.c **** 
 102:Drivers/STM32Cube_FW_F1_V1.4.0/STM32F1xx_HAL_Driver/Src/stm32f1xx_hal_pwr.c **** /* Alias word address of PVDE bit */
 103:Drivers/STM32Cube_FW_F1_V1.4.0/STM32F1xx_HAL_Driver/Src/stm32f1xx_hal_pwr.c **** #define PVDE_BIT_NUMBER           POSITION_VAL(PWR_CR_PVDE)
 104:Drivers/STM32Cube_FW_F1_V1.4.0/STM32F1xx_HAL_Driver/Src/stm32f1xx_hal_pwr.c **** #define CR_PVDE_BB               ((uint32_t)(PERIPH_BB_BASE + (PWR_CR_OFFSET_BB * 32) + (PVDE_BIT_N
 105:Drivers/STM32Cube_FW_F1_V1.4.0/STM32F1xx_HAL_Driver/Src/stm32f1xx_hal_pwr.c **** 
 106:Drivers/STM32Cube_FW_F1_V1.4.0/STM32F1xx_HAL_Driver/Src/stm32f1xx_hal_pwr.c **** /**
 107:Drivers/STM32Cube_FW_F1_V1.4.0/STM32F1xx_HAL_Driver/Src/stm32f1xx_hal_pwr.c ****   * @}
 108:Drivers/STM32Cube_FW_F1_V1.4.0/STM32F1xx_HAL_Driver/Src/stm32f1xx_hal_pwr.c ****   */
 109:Drivers/STM32Cube_FW_F1_V1.4.0/STM32F1xx_HAL_Driver/Src/stm32f1xx_hal_pwr.c **** 
 110:Drivers/STM32Cube_FW_F1_V1.4.0/STM32F1xx_HAL_Driver/Src/stm32f1xx_hal_pwr.c **** /** @defgroup PWR_CSR_register_alias PWR CSR Register alias address
 111:Drivers/STM32Cube_FW_F1_V1.4.0/STM32F1xx_HAL_Driver/Src/stm32f1xx_hal_pwr.c ****   * @{
 112:Drivers/STM32Cube_FW_F1_V1.4.0/STM32F1xx_HAL_Driver/Src/stm32f1xx_hal_pwr.c ****   */
 113:Drivers/STM32Cube_FW_F1_V1.4.0/STM32F1xx_HAL_Driver/Src/stm32f1xx_hal_pwr.c **** 
 114:Drivers/STM32Cube_FW_F1_V1.4.0/STM32F1xx_HAL_Driver/Src/stm32f1xx_hal_pwr.c **** /* --- CSR Register ---*/
 115:Drivers/STM32Cube_FW_F1_V1.4.0/STM32F1xx_HAL_Driver/Src/stm32f1xx_hal_pwr.c **** /* Alias word address of EWUP1 bit */
 116:Drivers/STM32Cube_FW_F1_V1.4.0/STM32F1xx_HAL_Driver/Src/stm32f1xx_hal_pwr.c **** #define CSR_EWUP_BB(VAL)         ((uint32_t)(PERIPH_BB_BASE + (PWR_CSR_OFFSET_BB * 32) + (POSITION_
 117:Drivers/STM32Cube_FW_F1_V1.4.0/STM32F1xx_HAL_Driver/Src/stm32f1xx_hal_pwr.c **** /**
 118:Drivers/STM32Cube_FW_F1_V1.4.0/STM32F1xx_HAL_Driver/Src/stm32f1xx_hal_pwr.c ****   * @}
 119:Drivers/STM32Cube_FW_F1_V1.4.0/STM32F1xx_HAL_Driver/Src/stm32f1xx_hal_pwr.c ****   */
 120:Drivers/STM32Cube_FW_F1_V1.4.0/STM32F1xx_HAL_Driver/Src/stm32f1xx_hal_pwr.c ****   
 121:Drivers/STM32Cube_FW_F1_V1.4.0/STM32F1xx_HAL_Driver/Src/stm32f1xx_hal_pwr.c **** /**
 122:Drivers/STM32Cube_FW_F1_V1.4.0/STM32F1xx_HAL_Driver/Src/stm32f1xx_hal_pwr.c ****   * @}
 123:Drivers/STM32Cube_FW_F1_V1.4.0/STM32F1xx_HAL_Driver/Src/stm32f1xx_hal_pwr.c ****   */
 124:Drivers/STM32Cube_FW_F1_V1.4.0/STM32F1xx_HAL_Driver/Src/stm32f1xx_hal_pwr.c **** 
 125:Drivers/STM32Cube_FW_F1_V1.4.0/STM32F1xx_HAL_Driver/Src/stm32f1xx_hal_pwr.c **** /* Private variables ---------------------------------------------------------*/
 126:Drivers/STM32Cube_FW_F1_V1.4.0/STM32F1xx_HAL_Driver/Src/stm32f1xx_hal_pwr.c **** /* Private function prototypes -----------------------------------------------*/
 127:Drivers/STM32Cube_FW_F1_V1.4.0/STM32F1xx_HAL_Driver/Src/stm32f1xx_hal_pwr.c **** /** @defgroup PWR_Private_Functions PWR Private Functions
 128:Drivers/STM32Cube_FW_F1_V1.4.0/STM32F1xx_HAL_Driver/Src/stm32f1xx_hal_pwr.c ****  * brief   WFE cortex command overloaded for HAL_PWR_EnterSTOPMode usage only (see Workaround secti
 129:Drivers/STM32Cube_FW_F1_V1.4.0/STM32F1xx_HAL_Driver/Src/stm32f1xx_hal_pwr.c ****  * @{
 130:Drivers/STM32Cube_FW_F1_V1.4.0/STM32F1xx_HAL_Driver/Src/stm32f1xx_hal_pwr.c ****  */
 131:Drivers/STM32Cube_FW_F1_V1.4.0/STM32F1xx_HAL_Driver/Src/stm32f1xx_hal_pwr.c **** static void PWR_OverloadWfe(void);
 132:Drivers/STM32Cube_FW_F1_V1.4.0/STM32F1xx_HAL_Driver/Src/stm32f1xx_hal_pwr.c **** 
 133:Drivers/STM32Cube_FW_F1_V1.4.0/STM32F1xx_HAL_Driver/Src/stm32f1xx_hal_pwr.c **** /* Private functions ---------------------------------------------------------*/
 134:Drivers/STM32Cube_FW_F1_V1.4.0/STM32F1xx_HAL_Driver/Src/stm32f1xx_hal_pwr.c **** __NOINLINE
 135:Drivers/STM32Cube_FW_F1_V1.4.0/STM32F1xx_HAL_Driver/Src/stm32f1xx_hal_pwr.c **** static void PWR_OverloadWfe(void)
 136:Drivers/STM32Cube_FW_F1_V1.4.0/STM32F1xx_HAL_Driver/Src/stm32f1xx_hal_pwr.c **** {
  25              		.loc 1 136 0
  26              		.cfi_startproc
  27              		@ args = 0, pretend = 0, frame = 0
  28              		@ frame_needed = 0, uses_anonymous_args = 0
  29              		@ link register save eliminated.
 137:Drivers/STM32Cube_FW_F1_V1.4.0/STM32F1xx_HAL_Driver/Src/stm32f1xx_hal_pwr.c ****   __asm volatile( "wfe" );
  30              		.loc 1 137 0
  31              		.syntax unified
  32              	@ 137 "Drivers/STM32Cube_FW_F1_V1.4.0/STM32F1xx_HAL_Driver/Src/stm32f1xx_hal_pwr.c" 1
  33 0000 20BF     		wfe
  34              	@ 0 "" 2
 138:Drivers/STM32Cube_FW_F1_V1.4.0/STM32F1xx_HAL_Driver/Src/stm32f1xx_hal_pwr.c ****   __asm volatile( "nop" );
ARM GAS  /tmp/ccJA6ppf.s 			page 4


  35              		.loc 1 138 0
  36              	@ 138 "Drivers/STM32Cube_FW_F1_V1.4.0/STM32F1xx_HAL_Driver/Src/stm32f1xx_hal_pwr.c" 1
  37 0002 00BF     		nop
  38              	@ 0 "" 2
  39              		.thumb
  40              		.syntax unified
  41 0004 7047     		bx	lr
  42              		.cfi_endproc
  43              	.LFE64:
  45              		.section	.text.HAL_PWR_DeInit,"ax",%progbits
  46              		.align	1
  47              		.global	HAL_PWR_DeInit
  48              		.syntax unified
  49              		.thumb
  50              		.thumb_func
  51              		.fpu softvfp
  53              	HAL_PWR_DeInit:
  54              	.LFB65:
 139:Drivers/STM32Cube_FW_F1_V1.4.0/STM32F1xx_HAL_Driver/Src/stm32f1xx_hal_pwr.c **** }
 140:Drivers/STM32Cube_FW_F1_V1.4.0/STM32F1xx_HAL_Driver/Src/stm32f1xx_hal_pwr.c **** 
 141:Drivers/STM32Cube_FW_F1_V1.4.0/STM32F1xx_HAL_Driver/Src/stm32f1xx_hal_pwr.c **** /**
 142:Drivers/STM32Cube_FW_F1_V1.4.0/STM32F1xx_HAL_Driver/Src/stm32f1xx_hal_pwr.c ****   * @}
 143:Drivers/STM32Cube_FW_F1_V1.4.0/STM32F1xx_HAL_Driver/Src/stm32f1xx_hal_pwr.c ****   */
 144:Drivers/STM32Cube_FW_F1_V1.4.0/STM32F1xx_HAL_Driver/Src/stm32f1xx_hal_pwr.c **** 
 145:Drivers/STM32Cube_FW_F1_V1.4.0/STM32F1xx_HAL_Driver/Src/stm32f1xx_hal_pwr.c **** 
 146:Drivers/STM32Cube_FW_F1_V1.4.0/STM32F1xx_HAL_Driver/Src/stm32f1xx_hal_pwr.c **** /** @defgroup PWR_Exported_Functions PWR Exported Functions
 147:Drivers/STM32Cube_FW_F1_V1.4.0/STM32F1xx_HAL_Driver/Src/stm32f1xx_hal_pwr.c ****   * @{
 148:Drivers/STM32Cube_FW_F1_V1.4.0/STM32F1xx_HAL_Driver/Src/stm32f1xx_hal_pwr.c ****   */
 149:Drivers/STM32Cube_FW_F1_V1.4.0/STM32F1xx_HAL_Driver/Src/stm32f1xx_hal_pwr.c **** 
 150:Drivers/STM32Cube_FW_F1_V1.4.0/STM32F1xx_HAL_Driver/Src/stm32f1xx_hal_pwr.c **** /** @defgroup PWR_Exported_Functions_Group1 Initialization and de-initialization functions 
 151:Drivers/STM32Cube_FW_F1_V1.4.0/STM32F1xx_HAL_Driver/Src/stm32f1xx_hal_pwr.c ****   *  @brief   Initialization and de-initialization functions
 152:Drivers/STM32Cube_FW_F1_V1.4.0/STM32F1xx_HAL_Driver/Src/stm32f1xx_hal_pwr.c ****   *
 153:Drivers/STM32Cube_FW_F1_V1.4.0/STM32F1xx_HAL_Driver/Src/stm32f1xx_hal_pwr.c **** @verbatim
 154:Drivers/STM32Cube_FW_F1_V1.4.0/STM32F1xx_HAL_Driver/Src/stm32f1xx_hal_pwr.c ****  ===============================================================================
 155:Drivers/STM32Cube_FW_F1_V1.4.0/STM32F1xx_HAL_Driver/Src/stm32f1xx_hal_pwr.c ****               ##### Initialization and de-initialization functions #####
 156:Drivers/STM32Cube_FW_F1_V1.4.0/STM32F1xx_HAL_Driver/Src/stm32f1xx_hal_pwr.c ****  ===============================================================================
 157:Drivers/STM32Cube_FW_F1_V1.4.0/STM32F1xx_HAL_Driver/Src/stm32f1xx_hal_pwr.c ****     [..]
 158:Drivers/STM32Cube_FW_F1_V1.4.0/STM32F1xx_HAL_Driver/Src/stm32f1xx_hal_pwr.c ****       After reset, the backup domain (RTC registers, RTC backup data
 159:Drivers/STM32Cube_FW_F1_V1.4.0/STM32F1xx_HAL_Driver/Src/stm32f1xx_hal_pwr.c ****       registers) is protected against possible unwanted
 160:Drivers/STM32Cube_FW_F1_V1.4.0/STM32F1xx_HAL_Driver/Src/stm32f1xx_hal_pwr.c ****       write accesses.
 161:Drivers/STM32Cube_FW_F1_V1.4.0/STM32F1xx_HAL_Driver/Src/stm32f1xx_hal_pwr.c ****       To enable access to the RTC Domain and RTC registers, proceed as follows:
 162:Drivers/STM32Cube_FW_F1_V1.4.0/STM32F1xx_HAL_Driver/Src/stm32f1xx_hal_pwr.c ****         (+) Enable the Power Controller (PWR) APB1 interface clock using the
 163:Drivers/STM32Cube_FW_F1_V1.4.0/STM32F1xx_HAL_Driver/Src/stm32f1xx_hal_pwr.c ****             __HAL_RCC_PWR_CLK_ENABLE() macro.
 164:Drivers/STM32Cube_FW_F1_V1.4.0/STM32F1xx_HAL_Driver/Src/stm32f1xx_hal_pwr.c ****         (+) Enable access to RTC domain using the HAL_PWR_EnableBkUpAccess() function.
 165:Drivers/STM32Cube_FW_F1_V1.4.0/STM32F1xx_HAL_Driver/Src/stm32f1xx_hal_pwr.c **** 
 166:Drivers/STM32Cube_FW_F1_V1.4.0/STM32F1xx_HAL_Driver/Src/stm32f1xx_hal_pwr.c **** @endverbatim
 167:Drivers/STM32Cube_FW_F1_V1.4.0/STM32F1xx_HAL_Driver/Src/stm32f1xx_hal_pwr.c ****   * @{
 168:Drivers/STM32Cube_FW_F1_V1.4.0/STM32F1xx_HAL_Driver/Src/stm32f1xx_hal_pwr.c ****   */
 169:Drivers/STM32Cube_FW_F1_V1.4.0/STM32F1xx_HAL_Driver/Src/stm32f1xx_hal_pwr.c **** 
 170:Drivers/STM32Cube_FW_F1_V1.4.0/STM32F1xx_HAL_Driver/Src/stm32f1xx_hal_pwr.c **** /**
 171:Drivers/STM32Cube_FW_F1_V1.4.0/STM32F1xx_HAL_Driver/Src/stm32f1xx_hal_pwr.c ****   * @brief  Deinitializes the PWR peripheral registers to their default reset values.  
 172:Drivers/STM32Cube_FW_F1_V1.4.0/STM32F1xx_HAL_Driver/Src/stm32f1xx_hal_pwr.c ****   * @retval None
 173:Drivers/STM32Cube_FW_F1_V1.4.0/STM32F1xx_HAL_Driver/Src/stm32f1xx_hal_pwr.c ****   */
 174:Drivers/STM32Cube_FW_F1_V1.4.0/STM32F1xx_HAL_Driver/Src/stm32f1xx_hal_pwr.c **** void HAL_PWR_DeInit(void)
 175:Drivers/STM32Cube_FW_F1_V1.4.0/STM32F1xx_HAL_Driver/Src/stm32f1xx_hal_pwr.c **** {
  55              		.loc 1 175 0
  56              		.cfi_startproc
ARM GAS  /tmp/ccJA6ppf.s 			page 5


  57              		@ args = 0, pretend = 0, frame = 0
  58              		@ frame_needed = 0, uses_anonymous_args = 0
  59              		@ link register save eliminated.
 176:Drivers/STM32Cube_FW_F1_V1.4.0/STM32F1xx_HAL_Driver/Src/stm32f1xx_hal_pwr.c ****   __HAL_RCC_PWR_FORCE_RESET();
  60              		.loc 1 176 0
  61 0000 044B     		ldr	r3, .L3
  62 0002 1A69     		ldr	r2, [r3, #16]
  63 0004 42F08052 		orr	r2, r2, #268435456
  64 0008 1A61     		str	r2, [r3, #16]
 177:Drivers/STM32Cube_FW_F1_V1.4.0/STM32F1xx_HAL_Driver/Src/stm32f1xx_hal_pwr.c ****   __HAL_RCC_PWR_RELEASE_RESET();
  65              		.loc 1 177 0
  66 000a 1A69     		ldr	r2, [r3, #16]
  67 000c 22F08052 		bic	r2, r2, #268435456
  68 0010 1A61     		str	r2, [r3, #16]
  69 0012 7047     		bx	lr
  70              	.L4:
  71              		.align	2
  72              	.L3:
  73 0014 00100240 		.word	1073876992
  74              		.cfi_endproc
  75              	.LFE65:
  77              		.section	.text.HAL_PWR_EnableBkUpAccess,"ax",%progbits
  78              		.align	1
  79              		.global	HAL_PWR_EnableBkUpAccess
  80              		.syntax unified
  81              		.thumb
  82              		.thumb_func
  83              		.fpu softvfp
  85              	HAL_PWR_EnableBkUpAccess:
  86              	.LFB66:
 178:Drivers/STM32Cube_FW_F1_V1.4.0/STM32F1xx_HAL_Driver/Src/stm32f1xx_hal_pwr.c **** }
 179:Drivers/STM32Cube_FW_F1_V1.4.0/STM32F1xx_HAL_Driver/Src/stm32f1xx_hal_pwr.c **** 
 180:Drivers/STM32Cube_FW_F1_V1.4.0/STM32F1xx_HAL_Driver/Src/stm32f1xx_hal_pwr.c **** /**
 181:Drivers/STM32Cube_FW_F1_V1.4.0/STM32F1xx_HAL_Driver/Src/stm32f1xx_hal_pwr.c ****   * @brief  Enables access to the backup domain (RTC registers, RTC
 182:Drivers/STM32Cube_FW_F1_V1.4.0/STM32F1xx_HAL_Driver/Src/stm32f1xx_hal_pwr.c ****   *         backup data registers ).
 183:Drivers/STM32Cube_FW_F1_V1.4.0/STM32F1xx_HAL_Driver/Src/stm32f1xx_hal_pwr.c ****   * @note   If the HSE divided by 128 is used as the RTC clock, the
 184:Drivers/STM32Cube_FW_F1_V1.4.0/STM32F1xx_HAL_Driver/Src/stm32f1xx_hal_pwr.c ****   *         Backup Domain Access should be kept enabled.
 185:Drivers/STM32Cube_FW_F1_V1.4.0/STM32F1xx_HAL_Driver/Src/stm32f1xx_hal_pwr.c ****   * @retval None
 186:Drivers/STM32Cube_FW_F1_V1.4.0/STM32F1xx_HAL_Driver/Src/stm32f1xx_hal_pwr.c ****   */
 187:Drivers/STM32Cube_FW_F1_V1.4.0/STM32F1xx_HAL_Driver/Src/stm32f1xx_hal_pwr.c **** void HAL_PWR_EnableBkUpAccess(void)
 188:Drivers/STM32Cube_FW_F1_V1.4.0/STM32F1xx_HAL_Driver/Src/stm32f1xx_hal_pwr.c **** {
  87              		.loc 1 188 0
  88              		.cfi_startproc
  89              		@ args = 0, pretend = 0, frame = 0
  90              		@ frame_needed = 0, uses_anonymous_args = 0
  91              		@ link register save eliminated.
  92              	.LVL0:
  93              	.LBB28:
  94              	.LBB29:
  95              		.file 2 "Drivers/STM32Cube_FW_F1_V1.4.0/CMSIS/Include/cmsis_gcc.h"
   1:Drivers/STM32Cube_FW_F1_V1.4.0/CMSIS/Include/cmsis_gcc.h **** /**************************************************************************//**
   2:Drivers/STM32Cube_FW_F1_V1.4.0/CMSIS/Include/cmsis_gcc.h ****  * @file     cmsis_gcc.h
   3:Drivers/STM32Cube_FW_F1_V1.4.0/CMSIS/Include/cmsis_gcc.h ****  * @brief    CMSIS Cortex-M Core Function/Instruction Header File
   4:Drivers/STM32Cube_FW_F1_V1.4.0/CMSIS/Include/cmsis_gcc.h ****  * @version  V4.30
   5:Drivers/STM32Cube_FW_F1_V1.4.0/CMSIS/Include/cmsis_gcc.h ****  * @date     20. October 2015
   6:Drivers/STM32Cube_FW_F1_V1.4.0/CMSIS/Include/cmsis_gcc.h ****  ******************************************************************************/
   7:Drivers/STM32Cube_FW_F1_V1.4.0/CMSIS/Include/cmsis_gcc.h **** /* Copyright (c) 2009 - 2015 ARM LIMITED
ARM GAS  /tmp/ccJA6ppf.s 			page 6


   8:Drivers/STM32Cube_FW_F1_V1.4.0/CMSIS/Include/cmsis_gcc.h **** 
   9:Drivers/STM32Cube_FW_F1_V1.4.0/CMSIS/Include/cmsis_gcc.h ****    All rights reserved.
  10:Drivers/STM32Cube_FW_F1_V1.4.0/CMSIS/Include/cmsis_gcc.h ****    Redistribution and use in source and binary forms, with or without
  11:Drivers/STM32Cube_FW_F1_V1.4.0/CMSIS/Include/cmsis_gcc.h ****    modification, are permitted provided that the following conditions are met:
  12:Drivers/STM32Cube_FW_F1_V1.4.0/CMSIS/Include/cmsis_gcc.h ****    - Redistributions of source code must retain the above copyright
  13:Drivers/STM32Cube_FW_F1_V1.4.0/CMSIS/Include/cmsis_gcc.h ****      notice, this list of conditions and the following disclaimer.
  14:Drivers/STM32Cube_FW_F1_V1.4.0/CMSIS/Include/cmsis_gcc.h ****    - Redistributions in binary form must reproduce the above copyright
  15:Drivers/STM32Cube_FW_F1_V1.4.0/CMSIS/Include/cmsis_gcc.h ****      notice, this list of conditions and the following disclaimer in the
  16:Drivers/STM32Cube_FW_F1_V1.4.0/CMSIS/Include/cmsis_gcc.h ****      documentation and/or other materials provided with the distribution.
  17:Drivers/STM32Cube_FW_F1_V1.4.0/CMSIS/Include/cmsis_gcc.h ****    - Neither the name of ARM nor the names of its contributors may be used
  18:Drivers/STM32Cube_FW_F1_V1.4.0/CMSIS/Include/cmsis_gcc.h ****      to endorse or promote products derived from this software without
  19:Drivers/STM32Cube_FW_F1_V1.4.0/CMSIS/Include/cmsis_gcc.h ****      specific prior written permission.
  20:Drivers/STM32Cube_FW_F1_V1.4.0/CMSIS/Include/cmsis_gcc.h ****    *
  21:Drivers/STM32Cube_FW_F1_V1.4.0/CMSIS/Include/cmsis_gcc.h ****    THIS SOFTWARE IS PROVIDED BY THE COPYRIGHT HOLDERS AND CONTRIBUTORS "AS IS"
  22:Drivers/STM32Cube_FW_F1_V1.4.0/CMSIS/Include/cmsis_gcc.h ****    AND ANY EXPRESS OR IMPLIED WARRANTIES, INCLUDING, BUT NOT LIMITED TO, THE
  23:Drivers/STM32Cube_FW_F1_V1.4.0/CMSIS/Include/cmsis_gcc.h ****    IMPLIED WARRANTIES OF MERCHANTABILITY AND FITNESS FOR A PARTICULAR PURPOSE
  24:Drivers/STM32Cube_FW_F1_V1.4.0/CMSIS/Include/cmsis_gcc.h ****    ARE DISCLAIMED. IN NO EVENT SHALL COPYRIGHT HOLDERS AND CONTRIBUTORS BE
  25:Drivers/STM32Cube_FW_F1_V1.4.0/CMSIS/Include/cmsis_gcc.h ****    LIABLE FOR ANY DIRECT, INDIRECT, INCIDENTAL, SPECIAL, EXEMPLARY, OR
  26:Drivers/STM32Cube_FW_F1_V1.4.0/CMSIS/Include/cmsis_gcc.h ****    CONSEQUENTIAL DAMAGES (INCLUDING, BUT NOT LIMITED TO, PROCUREMENT OF
  27:Drivers/STM32Cube_FW_F1_V1.4.0/CMSIS/Include/cmsis_gcc.h ****    SUBSTITUTE GOODS OR SERVICES; LOSS OF USE, DATA, OR PROFITS; OR BUSINESS
  28:Drivers/STM32Cube_FW_F1_V1.4.0/CMSIS/Include/cmsis_gcc.h ****    INTERRUPTION) HOWEVER CAUSED AND ON ANY THEORY OF LIABILITY, WHETHER IN
  29:Drivers/STM32Cube_FW_F1_V1.4.0/CMSIS/Include/cmsis_gcc.h ****    CONTRACT, STRICT LIABILITY, OR TORT (INCLUDING NEGLIGENCE OR OTHERWISE)
  30:Drivers/STM32Cube_FW_F1_V1.4.0/CMSIS/Include/cmsis_gcc.h ****    ARISING IN ANY WAY OUT OF THE USE OF THIS SOFTWARE, EVEN IF ADVISED OF THE
  31:Drivers/STM32Cube_FW_F1_V1.4.0/CMSIS/Include/cmsis_gcc.h ****    POSSIBILITY OF SUCH DAMAGE.
  32:Drivers/STM32Cube_FW_F1_V1.4.0/CMSIS/Include/cmsis_gcc.h ****    ---------------------------------------------------------------------------*/
  33:Drivers/STM32Cube_FW_F1_V1.4.0/CMSIS/Include/cmsis_gcc.h **** 
  34:Drivers/STM32Cube_FW_F1_V1.4.0/CMSIS/Include/cmsis_gcc.h **** 
  35:Drivers/STM32Cube_FW_F1_V1.4.0/CMSIS/Include/cmsis_gcc.h **** #ifndef __CMSIS_GCC_H
  36:Drivers/STM32Cube_FW_F1_V1.4.0/CMSIS/Include/cmsis_gcc.h **** #define __CMSIS_GCC_H
  37:Drivers/STM32Cube_FW_F1_V1.4.0/CMSIS/Include/cmsis_gcc.h **** 
  38:Drivers/STM32Cube_FW_F1_V1.4.0/CMSIS/Include/cmsis_gcc.h **** /* ignore some GCC warnings */
  39:Drivers/STM32Cube_FW_F1_V1.4.0/CMSIS/Include/cmsis_gcc.h **** #if defined ( __GNUC__ )
  40:Drivers/STM32Cube_FW_F1_V1.4.0/CMSIS/Include/cmsis_gcc.h **** #pragma GCC diagnostic push
  41:Drivers/STM32Cube_FW_F1_V1.4.0/CMSIS/Include/cmsis_gcc.h **** #pragma GCC diagnostic ignored "-Wsign-conversion"
  42:Drivers/STM32Cube_FW_F1_V1.4.0/CMSIS/Include/cmsis_gcc.h **** #pragma GCC diagnostic ignored "-Wconversion"
  43:Drivers/STM32Cube_FW_F1_V1.4.0/CMSIS/Include/cmsis_gcc.h **** #pragma GCC diagnostic ignored "-Wunused-parameter"
  44:Drivers/STM32Cube_FW_F1_V1.4.0/CMSIS/Include/cmsis_gcc.h **** #endif
  45:Drivers/STM32Cube_FW_F1_V1.4.0/CMSIS/Include/cmsis_gcc.h **** 
  46:Drivers/STM32Cube_FW_F1_V1.4.0/CMSIS/Include/cmsis_gcc.h **** 
  47:Drivers/STM32Cube_FW_F1_V1.4.0/CMSIS/Include/cmsis_gcc.h **** /* ###########################  Core Function Access  ########################### */
  48:Drivers/STM32Cube_FW_F1_V1.4.0/CMSIS/Include/cmsis_gcc.h **** /** \ingroup  CMSIS_Core_FunctionInterface
  49:Drivers/STM32Cube_FW_F1_V1.4.0/CMSIS/Include/cmsis_gcc.h ****     \defgroup CMSIS_Core_RegAccFunctions CMSIS Core Register Access Functions
  50:Drivers/STM32Cube_FW_F1_V1.4.0/CMSIS/Include/cmsis_gcc.h ****   @{
  51:Drivers/STM32Cube_FW_F1_V1.4.0/CMSIS/Include/cmsis_gcc.h ****  */
  52:Drivers/STM32Cube_FW_F1_V1.4.0/CMSIS/Include/cmsis_gcc.h **** 
  53:Drivers/STM32Cube_FW_F1_V1.4.0/CMSIS/Include/cmsis_gcc.h **** /**
  54:Drivers/STM32Cube_FW_F1_V1.4.0/CMSIS/Include/cmsis_gcc.h ****   \brief   Enable IRQ Interrupts
  55:Drivers/STM32Cube_FW_F1_V1.4.0/CMSIS/Include/cmsis_gcc.h ****   \details Enables IRQ interrupts by clearing the I-bit in the CPSR.
  56:Drivers/STM32Cube_FW_F1_V1.4.0/CMSIS/Include/cmsis_gcc.h ****            Can only be executed in Privileged modes.
  57:Drivers/STM32Cube_FW_F1_V1.4.0/CMSIS/Include/cmsis_gcc.h ****  */
  58:Drivers/STM32Cube_FW_F1_V1.4.0/CMSIS/Include/cmsis_gcc.h **** __attribute__( ( always_inline ) ) __STATIC_INLINE void __enable_irq(void)
  59:Drivers/STM32Cube_FW_F1_V1.4.0/CMSIS/Include/cmsis_gcc.h **** {
  60:Drivers/STM32Cube_FW_F1_V1.4.0/CMSIS/Include/cmsis_gcc.h ****   __ASM volatile ("cpsie i" : : : "memory");
  61:Drivers/STM32Cube_FW_F1_V1.4.0/CMSIS/Include/cmsis_gcc.h **** }
  62:Drivers/STM32Cube_FW_F1_V1.4.0/CMSIS/Include/cmsis_gcc.h **** 
  63:Drivers/STM32Cube_FW_F1_V1.4.0/CMSIS/Include/cmsis_gcc.h **** 
  64:Drivers/STM32Cube_FW_F1_V1.4.0/CMSIS/Include/cmsis_gcc.h **** /**
ARM GAS  /tmp/ccJA6ppf.s 			page 7


  65:Drivers/STM32Cube_FW_F1_V1.4.0/CMSIS/Include/cmsis_gcc.h ****   \brief   Disable IRQ Interrupts
  66:Drivers/STM32Cube_FW_F1_V1.4.0/CMSIS/Include/cmsis_gcc.h ****   \details Disables IRQ interrupts by setting the I-bit in the CPSR.
  67:Drivers/STM32Cube_FW_F1_V1.4.0/CMSIS/Include/cmsis_gcc.h ****   Can only be executed in Privileged modes.
  68:Drivers/STM32Cube_FW_F1_V1.4.0/CMSIS/Include/cmsis_gcc.h ****  */
  69:Drivers/STM32Cube_FW_F1_V1.4.0/CMSIS/Include/cmsis_gcc.h **** __attribute__( ( always_inline ) ) __STATIC_INLINE void __disable_irq(void)
  70:Drivers/STM32Cube_FW_F1_V1.4.0/CMSIS/Include/cmsis_gcc.h **** {
  71:Drivers/STM32Cube_FW_F1_V1.4.0/CMSIS/Include/cmsis_gcc.h ****   __ASM volatile ("cpsid i" : : : "memory");
  72:Drivers/STM32Cube_FW_F1_V1.4.0/CMSIS/Include/cmsis_gcc.h **** }
  73:Drivers/STM32Cube_FW_F1_V1.4.0/CMSIS/Include/cmsis_gcc.h **** 
  74:Drivers/STM32Cube_FW_F1_V1.4.0/CMSIS/Include/cmsis_gcc.h **** 
  75:Drivers/STM32Cube_FW_F1_V1.4.0/CMSIS/Include/cmsis_gcc.h **** /**
  76:Drivers/STM32Cube_FW_F1_V1.4.0/CMSIS/Include/cmsis_gcc.h ****   \brief   Get Control Register
  77:Drivers/STM32Cube_FW_F1_V1.4.0/CMSIS/Include/cmsis_gcc.h ****   \details Returns the content of the Control Register.
  78:Drivers/STM32Cube_FW_F1_V1.4.0/CMSIS/Include/cmsis_gcc.h ****   \return               Control Register value
  79:Drivers/STM32Cube_FW_F1_V1.4.0/CMSIS/Include/cmsis_gcc.h ****  */
  80:Drivers/STM32Cube_FW_F1_V1.4.0/CMSIS/Include/cmsis_gcc.h **** __attribute__( ( always_inline ) ) __STATIC_INLINE uint32_t __get_CONTROL(void)
  81:Drivers/STM32Cube_FW_F1_V1.4.0/CMSIS/Include/cmsis_gcc.h **** {
  82:Drivers/STM32Cube_FW_F1_V1.4.0/CMSIS/Include/cmsis_gcc.h ****   uint32_t result;
  83:Drivers/STM32Cube_FW_F1_V1.4.0/CMSIS/Include/cmsis_gcc.h **** 
  84:Drivers/STM32Cube_FW_F1_V1.4.0/CMSIS/Include/cmsis_gcc.h ****   __ASM volatile ("MRS %0, control" : "=r" (result) );
  85:Drivers/STM32Cube_FW_F1_V1.4.0/CMSIS/Include/cmsis_gcc.h ****   return(result);
  86:Drivers/STM32Cube_FW_F1_V1.4.0/CMSIS/Include/cmsis_gcc.h **** }
  87:Drivers/STM32Cube_FW_F1_V1.4.0/CMSIS/Include/cmsis_gcc.h **** 
  88:Drivers/STM32Cube_FW_F1_V1.4.0/CMSIS/Include/cmsis_gcc.h **** 
  89:Drivers/STM32Cube_FW_F1_V1.4.0/CMSIS/Include/cmsis_gcc.h **** /**
  90:Drivers/STM32Cube_FW_F1_V1.4.0/CMSIS/Include/cmsis_gcc.h ****   \brief   Set Control Register
  91:Drivers/STM32Cube_FW_F1_V1.4.0/CMSIS/Include/cmsis_gcc.h ****   \details Writes the given value to the Control Register.
  92:Drivers/STM32Cube_FW_F1_V1.4.0/CMSIS/Include/cmsis_gcc.h ****   \param [in]    control  Control Register value to set
  93:Drivers/STM32Cube_FW_F1_V1.4.0/CMSIS/Include/cmsis_gcc.h ****  */
  94:Drivers/STM32Cube_FW_F1_V1.4.0/CMSIS/Include/cmsis_gcc.h **** __attribute__( ( always_inline ) ) __STATIC_INLINE void __set_CONTROL(uint32_t control)
  95:Drivers/STM32Cube_FW_F1_V1.4.0/CMSIS/Include/cmsis_gcc.h **** {
  96:Drivers/STM32Cube_FW_F1_V1.4.0/CMSIS/Include/cmsis_gcc.h ****   __ASM volatile ("MSR control, %0" : : "r" (control) : "memory");
  97:Drivers/STM32Cube_FW_F1_V1.4.0/CMSIS/Include/cmsis_gcc.h **** }
  98:Drivers/STM32Cube_FW_F1_V1.4.0/CMSIS/Include/cmsis_gcc.h **** 
  99:Drivers/STM32Cube_FW_F1_V1.4.0/CMSIS/Include/cmsis_gcc.h **** 
 100:Drivers/STM32Cube_FW_F1_V1.4.0/CMSIS/Include/cmsis_gcc.h **** /**
 101:Drivers/STM32Cube_FW_F1_V1.4.0/CMSIS/Include/cmsis_gcc.h ****   \brief   Get IPSR Register
 102:Drivers/STM32Cube_FW_F1_V1.4.0/CMSIS/Include/cmsis_gcc.h ****   \details Returns the content of the IPSR Register.
 103:Drivers/STM32Cube_FW_F1_V1.4.0/CMSIS/Include/cmsis_gcc.h ****   \return               IPSR Register value
 104:Drivers/STM32Cube_FW_F1_V1.4.0/CMSIS/Include/cmsis_gcc.h ****  */
 105:Drivers/STM32Cube_FW_F1_V1.4.0/CMSIS/Include/cmsis_gcc.h **** __attribute__( ( always_inline ) ) __STATIC_INLINE uint32_t __get_IPSR(void)
 106:Drivers/STM32Cube_FW_F1_V1.4.0/CMSIS/Include/cmsis_gcc.h **** {
 107:Drivers/STM32Cube_FW_F1_V1.4.0/CMSIS/Include/cmsis_gcc.h ****   uint32_t result;
 108:Drivers/STM32Cube_FW_F1_V1.4.0/CMSIS/Include/cmsis_gcc.h **** 
 109:Drivers/STM32Cube_FW_F1_V1.4.0/CMSIS/Include/cmsis_gcc.h ****   __ASM volatile ("MRS %0, ipsr" : "=r" (result) );
 110:Drivers/STM32Cube_FW_F1_V1.4.0/CMSIS/Include/cmsis_gcc.h ****   return(result);
 111:Drivers/STM32Cube_FW_F1_V1.4.0/CMSIS/Include/cmsis_gcc.h **** }
 112:Drivers/STM32Cube_FW_F1_V1.4.0/CMSIS/Include/cmsis_gcc.h **** 
 113:Drivers/STM32Cube_FW_F1_V1.4.0/CMSIS/Include/cmsis_gcc.h **** 
 114:Drivers/STM32Cube_FW_F1_V1.4.0/CMSIS/Include/cmsis_gcc.h **** /**
 115:Drivers/STM32Cube_FW_F1_V1.4.0/CMSIS/Include/cmsis_gcc.h ****   \brief   Get APSR Register
 116:Drivers/STM32Cube_FW_F1_V1.4.0/CMSIS/Include/cmsis_gcc.h ****   \details Returns the content of the APSR Register.
 117:Drivers/STM32Cube_FW_F1_V1.4.0/CMSIS/Include/cmsis_gcc.h ****   \return               APSR Register value
 118:Drivers/STM32Cube_FW_F1_V1.4.0/CMSIS/Include/cmsis_gcc.h ****  */
 119:Drivers/STM32Cube_FW_F1_V1.4.0/CMSIS/Include/cmsis_gcc.h **** __attribute__( ( always_inline ) ) __STATIC_INLINE uint32_t __get_APSR(void)
 120:Drivers/STM32Cube_FW_F1_V1.4.0/CMSIS/Include/cmsis_gcc.h **** {
 121:Drivers/STM32Cube_FW_F1_V1.4.0/CMSIS/Include/cmsis_gcc.h ****   uint32_t result;
ARM GAS  /tmp/ccJA6ppf.s 			page 8


 122:Drivers/STM32Cube_FW_F1_V1.4.0/CMSIS/Include/cmsis_gcc.h **** 
 123:Drivers/STM32Cube_FW_F1_V1.4.0/CMSIS/Include/cmsis_gcc.h ****   __ASM volatile ("MRS %0, apsr" : "=r" (result) );
 124:Drivers/STM32Cube_FW_F1_V1.4.0/CMSIS/Include/cmsis_gcc.h ****   return(result);
 125:Drivers/STM32Cube_FW_F1_V1.4.0/CMSIS/Include/cmsis_gcc.h **** }
 126:Drivers/STM32Cube_FW_F1_V1.4.0/CMSIS/Include/cmsis_gcc.h **** 
 127:Drivers/STM32Cube_FW_F1_V1.4.0/CMSIS/Include/cmsis_gcc.h **** 
 128:Drivers/STM32Cube_FW_F1_V1.4.0/CMSIS/Include/cmsis_gcc.h **** /**
 129:Drivers/STM32Cube_FW_F1_V1.4.0/CMSIS/Include/cmsis_gcc.h ****   \brief   Get xPSR Register
 130:Drivers/STM32Cube_FW_F1_V1.4.0/CMSIS/Include/cmsis_gcc.h ****   \details Returns the content of the xPSR Register.
 131:Drivers/STM32Cube_FW_F1_V1.4.0/CMSIS/Include/cmsis_gcc.h **** 
 132:Drivers/STM32Cube_FW_F1_V1.4.0/CMSIS/Include/cmsis_gcc.h ****     \return               xPSR Register value
 133:Drivers/STM32Cube_FW_F1_V1.4.0/CMSIS/Include/cmsis_gcc.h ****  */
 134:Drivers/STM32Cube_FW_F1_V1.4.0/CMSIS/Include/cmsis_gcc.h **** __attribute__( ( always_inline ) ) __STATIC_INLINE uint32_t __get_xPSR(void)
 135:Drivers/STM32Cube_FW_F1_V1.4.0/CMSIS/Include/cmsis_gcc.h **** {
 136:Drivers/STM32Cube_FW_F1_V1.4.0/CMSIS/Include/cmsis_gcc.h ****   uint32_t result;
 137:Drivers/STM32Cube_FW_F1_V1.4.0/CMSIS/Include/cmsis_gcc.h **** 
 138:Drivers/STM32Cube_FW_F1_V1.4.0/CMSIS/Include/cmsis_gcc.h ****   __ASM volatile ("MRS %0, xpsr" : "=r" (result) );
 139:Drivers/STM32Cube_FW_F1_V1.4.0/CMSIS/Include/cmsis_gcc.h ****   return(result);
 140:Drivers/STM32Cube_FW_F1_V1.4.0/CMSIS/Include/cmsis_gcc.h **** }
 141:Drivers/STM32Cube_FW_F1_V1.4.0/CMSIS/Include/cmsis_gcc.h **** 
 142:Drivers/STM32Cube_FW_F1_V1.4.0/CMSIS/Include/cmsis_gcc.h **** 
 143:Drivers/STM32Cube_FW_F1_V1.4.0/CMSIS/Include/cmsis_gcc.h **** /**
 144:Drivers/STM32Cube_FW_F1_V1.4.0/CMSIS/Include/cmsis_gcc.h ****   \brief   Get Process Stack Pointer
 145:Drivers/STM32Cube_FW_F1_V1.4.0/CMSIS/Include/cmsis_gcc.h ****   \details Returns the current value of the Process Stack Pointer (PSP).
 146:Drivers/STM32Cube_FW_F1_V1.4.0/CMSIS/Include/cmsis_gcc.h ****   \return               PSP Register value
 147:Drivers/STM32Cube_FW_F1_V1.4.0/CMSIS/Include/cmsis_gcc.h ****  */
 148:Drivers/STM32Cube_FW_F1_V1.4.0/CMSIS/Include/cmsis_gcc.h **** __attribute__( ( always_inline ) ) __STATIC_INLINE uint32_t __get_PSP(void)
 149:Drivers/STM32Cube_FW_F1_V1.4.0/CMSIS/Include/cmsis_gcc.h **** {
 150:Drivers/STM32Cube_FW_F1_V1.4.0/CMSIS/Include/cmsis_gcc.h ****   register uint32_t result;
 151:Drivers/STM32Cube_FW_F1_V1.4.0/CMSIS/Include/cmsis_gcc.h **** 
 152:Drivers/STM32Cube_FW_F1_V1.4.0/CMSIS/Include/cmsis_gcc.h ****   __ASM volatile ("MRS %0, psp\n"  : "=r" (result) );
 153:Drivers/STM32Cube_FW_F1_V1.4.0/CMSIS/Include/cmsis_gcc.h ****   return(result);
 154:Drivers/STM32Cube_FW_F1_V1.4.0/CMSIS/Include/cmsis_gcc.h **** }
 155:Drivers/STM32Cube_FW_F1_V1.4.0/CMSIS/Include/cmsis_gcc.h **** 
 156:Drivers/STM32Cube_FW_F1_V1.4.0/CMSIS/Include/cmsis_gcc.h **** 
 157:Drivers/STM32Cube_FW_F1_V1.4.0/CMSIS/Include/cmsis_gcc.h **** /**
 158:Drivers/STM32Cube_FW_F1_V1.4.0/CMSIS/Include/cmsis_gcc.h ****   \brief   Set Process Stack Pointer
 159:Drivers/STM32Cube_FW_F1_V1.4.0/CMSIS/Include/cmsis_gcc.h ****   \details Assigns the given value to the Process Stack Pointer (PSP).
 160:Drivers/STM32Cube_FW_F1_V1.4.0/CMSIS/Include/cmsis_gcc.h ****   \param [in]    topOfProcStack  Process Stack Pointer value to set
 161:Drivers/STM32Cube_FW_F1_V1.4.0/CMSIS/Include/cmsis_gcc.h ****  */
 162:Drivers/STM32Cube_FW_F1_V1.4.0/CMSIS/Include/cmsis_gcc.h **** __attribute__( ( always_inline ) ) __STATIC_INLINE void __set_PSP(uint32_t topOfProcStack)
 163:Drivers/STM32Cube_FW_F1_V1.4.0/CMSIS/Include/cmsis_gcc.h **** {
 164:Drivers/STM32Cube_FW_F1_V1.4.0/CMSIS/Include/cmsis_gcc.h ****   __ASM volatile ("MSR psp, %0\n" : : "r" (topOfProcStack) : "sp");
 165:Drivers/STM32Cube_FW_F1_V1.4.0/CMSIS/Include/cmsis_gcc.h **** }
 166:Drivers/STM32Cube_FW_F1_V1.4.0/CMSIS/Include/cmsis_gcc.h **** 
 167:Drivers/STM32Cube_FW_F1_V1.4.0/CMSIS/Include/cmsis_gcc.h **** 
 168:Drivers/STM32Cube_FW_F1_V1.4.0/CMSIS/Include/cmsis_gcc.h **** /**
 169:Drivers/STM32Cube_FW_F1_V1.4.0/CMSIS/Include/cmsis_gcc.h ****   \brief   Get Main Stack Pointer
 170:Drivers/STM32Cube_FW_F1_V1.4.0/CMSIS/Include/cmsis_gcc.h ****   \details Returns the current value of the Main Stack Pointer (MSP).
 171:Drivers/STM32Cube_FW_F1_V1.4.0/CMSIS/Include/cmsis_gcc.h ****   \return               MSP Register value
 172:Drivers/STM32Cube_FW_F1_V1.4.0/CMSIS/Include/cmsis_gcc.h ****  */
 173:Drivers/STM32Cube_FW_F1_V1.4.0/CMSIS/Include/cmsis_gcc.h **** __attribute__( ( always_inline ) ) __STATIC_INLINE uint32_t __get_MSP(void)
 174:Drivers/STM32Cube_FW_F1_V1.4.0/CMSIS/Include/cmsis_gcc.h **** {
 175:Drivers/STM32Cube_FW_F1_V1.4.0/CMSIS/Include/cmsis_gcc.h ****   register uint32_t result;
 176:Drivers/STM32Cube_FW_F1_V1.4.0/CMSIS/Include/cmsis_gcc.h **** 
 177:Drivers/STM32Cube_FW_F1_V1.4.0/CMSIS/Include/cmsis_gcc.h ****   __ASM volatile ("MRS %0, msp\n" : "=r" (result) );
 178:Drivers/STM32Cube_FW_F1_V1.4.0/CMSIS/Include/cmsis_gcc.h ****   return(result);
ARM GAS  /tmp/ccJA6ppf.s 			page 9


 179:Drivers/STM32Cube_FW_F1_V1.4.0/CMSIS/Include/cmsis_gcc.h **** }
 180:Drivers/STM32Cube_FW_F1_V1.4.0/CMSIS/Include/cmsis_gcc.h **** 
 181:Drivers/STM32Cube_FW_F1_V1.4.0/CMSIS/Include/cmsis_gcc.h **** 
 182:Drivers/STM32Cube_FW_F1_V1.4.0/CMSIS/Include/cmsis_gcc.h **** /**
 183:Drivers/STM32Cube_FW_F1_V1.4.0/CMSIS/Include/cmsis_gcc.h ****   \brief   Set Main Stack Pointer
 184:Drivers/STM32Cube_FW_F1_V1.4.0/CMSIS/Include/cmsis_gcc.h ****   \details Assigns the given value to the Main Stack Pointer (MSP).
 185:Drivers/STM32Cube_FW_F1_V1.4.0/CMSIS/Include/cmsis_gcc.h **** 
 186:Drivers/STM32Cube_FW_F1_V1.4.0/CMSIS/Include/cmsis_gcc.h ****     \param [in]    topOfMainStack  Main Stack Pointer value to set
 187:Drivers/STM32Cube_FW_F1_V1.4.0/CMSIS/Include/cmsis_gcc.h ****  */
 188:Drivers/STM32Cube_FW_F1_V1.4.0/CMSIS/Include/cmsis_gcc.h **** __attribute__( ( always_inline ) ) __STATIC_INLINE void __set_MSP(uint32_t topOfMainStack)
 189:Drivers/STM32Cube_FW_F1_V1.4.0/CMSIS/Include/cmsis_gcc.h **** {
 190:Drivers/STM32Cube_FW_F1_V1.4.0/CMSIS/Include/cmsis_gcc.h ****   __ASM volatile ("MSR msp, %0\n" : : "r" (topOfMainStack) : "sp");
 191:Drivers/STM32Cube_FW_F1_V1.4.0/CMSIS/Include/cmsis_gcc.h **** }
 192:Drivers/STM32Cube_FW_F1_V1.4.0/CMSIS/Include/cmsis_gcc.h **** 
 193:Drivers/STM32Cube_FW_F1_V1.4.0/CMSIS/Include/cmsis_gcc.h **** 
 194:Drivers/STM32Cube_FW_F1_V1.4.0/CMSIS/Include/cmsis_gcc.h **** /**
 195:Drivers/STM32Cube_FW_F1_V1.4.0/CMSIS/Include/cmsis_gcc.h ****   \brief   Get Priority Mask
 196:Drivers/STM32Cube_FW_F1_V1.4.0/CMSIS/Include/cmsis_gcc.h ****   \details Returns the current state of the priority mask bit from the Priority Mask Register.
 197:Drivers/STM32Cube_FW_F1_V1.4.0/CMSIS/Include/cmsis_gcc.h ****   \return               Priority Mask value
 198:Drivers/STM32Cube_FW_F1_V1.4.0/CMSIS/Include/cmsis_gcc.h ****  */
 199:Drivers/STM32Cube_FW_F1_V1.4.0/CMSIS/Include/cmsis_gcc.h **** __attribute__( ( always_inline ) ) __STATIC_INLINE uint32_t __get_PRIMASK(void)
 200:Drivers/STM32Cube_FW_F1_V1.4.0/CMSIS/Include/cmsis_gcc.h **** {
 201:Drivers/STM32Cube_FW_F1_V1.4.0/CMSIS/Include/cmsis_gcc.h ****   uint32_t result;
 202:Drivers/STM32Cube_FW_F1_V1.4.0/CMSIS/Include/cmsis_gcc.h **** 
 203:Drivers/STM32Cube_FW_F1_V1.4.0/CMSIS/Include/cmsis_gcc.h ****   __ASM volatile ("MRS %0, primask" : "=r" (result) );
 204:Drivers/STM32Cube_FW_F1_V1.4.0/CMSIS/Include/cmsis_gcc.h ****   return(result);
 205:Drivers/STM32Cube_FW_F1_V1.4.0/CMSIS/Include/cmsis_gcc.h **** }
 206:Drivers/STM32Cube_FW_F1_V1.4.0/CMSIS/Include/cmsis_gcc.h **** 
 207:Drivers/STM32Cube_FW_F1_V1.4.0/CMSIS/Include/cmsis_gcc.h **** 
 208:Drivers/STM32Cube_FW_F1_V1.4.0/CMSIS/Include/cmsis_gcc.h **** /**
 209:Drivers/STM32Cube_FW_F1_V1.4.0/CMSIS/Include/cmsis_gcc.h ****   \brief   Set Priority Mask
 210:Drivers/STM32Cube_FW_F1_V1.4.0/CMSIS/Include/cmsis_gcc.h ****   \details Assigns the given value to the Priority Mask Register.
 211:Drivers/STM32Cube_FW_F1_V1.4.0/CMSIS/Include/cmsis_gcc.h ****   \param [in]    priMask  Priority Mask
 212:Drivers/STM32Cube_FW_F1_V1.4.0/CMSIS/Include/cmsis_gcc.h ****  */
 213:Drivers/STM32Cube_FW_F1_V1.4.0/CMSIS/Include/cmsis_gcc.h **** __attribute__( ( always_inline ) ) __STATIC_INLINE void __set_PRIMASK(uint32_t priMask)
 214:Drivers/STM32Cube_FW_F1_V1.4.0/CMSIS/Include/cmsis_gcc.h **** {
 215:Drivers/STM32Cube_FW_F1_V1.4.0/CMSIS/Include/cmsis_gcc.h ****   __ASM volatile ("MSR primask, %0" : : "r" (priMask) : "memory");
 216:Drivers/STM32Cube_FW_F1_V1.4.0/CMSIS/Include/cmsis_gcc.h **** }
 217:Drivers/STM32Cube_FW_F1_V1.4.0/CMSIS/Include/cmsis_gcc.h **** 
 218:Drivers/STM32Cube_FW_F1_V1.4.0/CMSIS/Include/cmsis_gcc.h **** 
 219:Drivers/STM32Cube_FW_F1_V1.4.0/CMSIS/Include/cmsis_gcc.h **** #if       (__CORTEX_M >= 0x03U)
 220:Drivers/STM32Cube_FW_F1_V1.4.0/CMSIS/Include/cmsis_gcc.h **** 
 221:Drivers/STM32Cube_FW_F1_V1.4.0/CMSIS/Include/cmsis_gcc.h **** /**
 222:Drivers/STM32Cube_FW_F1_V1.4.0/CMSIS/Include/cmsis_gcc.h ****   \brief   Enable FIQ
 223:Drivers/STM32Cube_FW_F1_V1.4.0/CMSIS/Include/cmsis_gcc.h ****   \details Enables FIQ interrupts by clearing the F-bit in the CPSR.
 224:Drivers/STM32Cube_FW_F1_V1.4.0/CMSIS/Include/cmsis_gcc.h ****            Can only be executed in Privileged modes.
 225:Drivers/STM32Cube_FW_F1_V1.4.0/CMSIS/Include/cmsis_gcc.h ****  */
 226:Drivers/STM32Cube_FW_F1_V1.4.0/CMSIS/Include/cmsis_gcc.h **** __attribute__( ( always_inline ) ) __STATIC_INLINE void __enable_fault_irq(void)
 227:Drivers/STM32Cube_FW_F1_V1.4.0/CMSIS/Include/cmsis_gcc.h **** {
 228:Drivers/STM32Cube_FW_F1_V1.4.0/CMSIS/Include/cmsis_gcc.h ****   __ASM volatile ("cpsie f" : : : "memory");
 229:Drivers/STM32Cube_FW_F1_V1.4.0/CMSIS/Include/cmsis_gcc.h **** }
 230:Drivers/STM32Cube_FW_F1_V1.4.0/CMSIS/Include/cmsis_gcc.h **** 
 231:Drivers/STM32Cube_FW_F1_V1.4.0/CMSIS/Include/cmsis_gcc.h **** 
 232:Drivers/STM32Cube_FW_F1_V1.4.0/CMSIS/Include/cmsis_gcc.h **** /**
 233:Drivers/STM32Cube_FW_F1_V1.4.0/CMSIS/Include/cmsis_gcc.h ****   \brief   Disable FIQ
 234:Drivers/STM32Cube_FW_F1_V1.4.0/CMSIS/Include/cmsis_gcc.h ****   \details Disables FIQ interrupts by setting the F-bit in the CPSR.
 235:Drivers/STM32Cube_FW_F1_V1.4.0/CMSIS/Include/cmsis_gcc.h ****            Can only be executed in Privileged modes.
ARM GAS  /tmp/ccJA6ppf.s 			page 10


 236:Drivers/STM32Cube_FW_F1_V1.4.0/CMSIS/Include/cmsis_gcc.h ****  */
 237:Drivers/STM32Cube_FW_F1_V1.4.0/CMSIS/Include/cmsis_gcc.h **** __attribute__( ( always_inline ) ) __STATIC_INLINE void __disable_fault_irq(void)
 238:Drivers/STM32Cube_FW_F1_V1.4.0/CMSIS/Include/cmsis_gcc.h **** {
 239:Drivers/STM32Cube_FW_F1_V1.4.0/CMSIS/Include/cmsis_gcc.h ****   __ASM volatile ("cpsid f" : : : "memory");
 240:Drivers/STM32Cube_FW_F1_V1.4.0/CMSIS/Include/cmsis_gcc.h **** }
 241:Drivers/STM32Cube_FW_F1_V1.4.0/CMSIS/Include/cmsis_gcc.h **** 
 242:Drivers/STM32Cube_FW_F1_V1.4.0/CMSIS/Include/cmsis_gcc.h **** 
 243:Drivers/STM32Cube_FW_F1_V1.4.0/CMSIS/Include/cmsis_gcc.h **** /**
 244:Drivers/STM32Cube_FW_F1_V1.4.0/CMSIS/Include/cmsis_gcc.h ****   \brief   Get Base Priority
 245:Drivers/STM32Cube_FW_F1_V1.4.0/CMSIS/Include/cmsis_gcc.h ****   \details Returns the current value of the Base Priority register.
 246:Drivers/STM32Cube_FW_F1_V1.4.0/CMSIS/Include/cmsis_gcc.h ****   \return               Base Priority register value
 247:Drivers/STM32Cube_FW_F1_V1.4.0/CMSIS/Include/cmsis_gcc.h ****  */
 248:Drivers/STM32Cube_FW_F1_V1.4.0/CMSIS/Include/cmsis_gcc.h **** __attribute__( ( always_inline ) ) __STATIC_INLINE uint32_t __get_BASEPRI(void)
 249:Drivers/STM32Cube_FW_F1_V1.4.0/CMSIS/Include/cmsis_gcc.h **** {
 250:Drivers/STM32Cube_FW_F1_V1.4.0/CMSIS/Include/cmsis_gcc.h ****   uint32_t result;
 251:Drivers/STM32Cube_FW_F1_V1.4.0/CMSIS/Include/cmsis_gcc.h **** 
 252:Drivers/STM32Cube_FW_F1_V1.4.0/CMSIS/Include/cmsis_gcc.h ****   __ASM volatile ("MRS %0, basepri" : "=r" (result) );
 253:Drivers/STM32Cube_FW_F1_V1.4.0/CMSIS/Include/cmsis_gcc.h ****   return(result);
 254:Drivers/STM32Cube_FW_F1_V1.4.0/CMSIS/Include/cmsis_gcc.h **** }
 255:Drivers/STM32Cube_FW_F1_V1.4.0/CMSIS/Include/cmsis_gcc.h **** 
 256:Drivers/STM32Cube_FW_F1_V1.4.0/CMSIS/Include/cmsis_gcc.h **** 
 257:Drivers/STM32Cube_FW_F1_V1.4.0/CMSIS/Include/cmsis_gcc.h **** /**
 258:Drivers/STM32Cube_FW_F1_V1.4.0/CMSIS/Include/cmsis_gcc.h ****   \brief   Set Base Priority
 259:Drivers/STM32Cube_FW_F1_V1.4.0/CMSIS/Include/cmsis_gcc.h ****   \details Assigns the given value to the Base Priority register.
 260:Drivers/STM32Cube_FW_F1_V1.4.0/CMSIS/Include/cmsis_gcc.h ****   \param [in]    basePri  Base Priority value to set
 261:Drivers/STM32Cube_FW_F1_V1.4.0/CMSIS/Include/cmsis_gcc.h ****  */
 262:Drivers/STM32Cube_FW_F1_V1.4.0/CMSIS/Include/cmsis_gcc.h **** __attribute__( ( always_inline ) ) __STATIC_INLINE void __set_BASEPRI(uint32_t value)
 263:Drivers/STM32Cube_FW_F1_V1.4.0/CMSIS/Include/cmsis_gcc.h **** {
 264:Drivers/STM32Cube_FW_F1_V1.4.0/CMSIS/Include/cmsis_gcc.h ****   __ASM volatile ("MSR basepri, %0" : : "r" (value) : "memory");
 265:Drivers/STM32Cube_FW_F1_V1.4.0/CMSIS/Include/cmsis_gcc.h **** }
 266:Drivers/STM32Cube_FW_F1_V1.4.0/CMSIS/Include/cmsis_gcc.h **** 
 267:Drivers/STM32Cube_FW_F1_V1.4.0/CMSIS/Include/cmsis_gcc.h **** 
 268:Drivers/STM32Cube_FW_F1_V1.4.0/CMSIS/Include/cmsis_gcc.h **** /**
 269:Drivers/STM32Cube_FW_F1_V1.4.0/CMSIS/Include/cmsis_gcc.h ****   \brief   Set Base Priority with condition
 270:Drivers/STM32Cube_FW_F1_V1.4.0/CMSIS/Include/cmsis_gcc.h ****   \details Assigns the given value to the Base Priority register only if BASEPRI masking is disable
 271:Drivers/STM32Cube_FW_F1_V1.4.0/CMSIS/Include/cmsis_gcc.h ****            or the new value increases the BASEPRI priority level.
 272:Drivers/STM32Cube_FW_F1_V1.4.0/CMSIS/Include/cmsis_gcc.h ****   \param [in]    basePri  Base Priority value to set
 273:Drivers/STM32Cube_FW_F1_V1.4.0/CMSIS/Include/cmsis_gcc.h ****  */
 274:Drivers/STM32Cube_FW_F1_V1.4.0/CMSIS/Include/cmsis_gcc.h **** __attribute__( ( always_inline ) ) __STATIC_INLINE void __set_BASEPRI_MAX(uint32_t value)
 275:Drivers/STM32Cube_FW_F1_V1.4.0/CMSIS/Include/cmsis_gcc.h **** {
 276:Drivers/STM32Cube_FW_F1_V1.4.0/CMSIS/Include/cmsis_gcc.h ****   __ASM volatile ("MSR basepri_max, %0" : : "r" (value) : "memory");
 277:Drivers/STM32Cube_FW_F1_V1.4.0/CMSIS/Include/cmsis_gcc.h **** }
 278:Drivers/STM32Cube_FW_F1_V1.4.0/CMSIS/Include/cmsis_gcc.h **** 
 279:Drivers/STM32Cube_FW_F1_V1.4.0/CMSIS/Include/cmsis_gcc.h **** 
 280:Drivers/STM32Cube_FW_F1_V1.4.0/CMSIS/Include/cmsis_gcc.h **** /**
 281:Drivers/STM32Cube_FW_F1_V1.4.0/CMSIS/Include/cmsis_gcc.h ****   \brief   Get Fault Mask
 282:Drivers/STM32Cube_FW_F1_V1.4.0/CMSIS/Include/cmsis_gcc.h ****   \details Returns the current value of the Fault Mask register.
 283:Drivers/STM32Cube_FW_F1_V1.4.0/CMSIS/Include/cmsis_gcc.h ****   \return               Fault Mask register value
 284:Drivers/STM32Cube_FW_F1_V1.4.0/CMSIS/Include/cmsis_gcc.h ****  */
 285:Drivers/STM32Cube_FW_F1_V1.4.0/CMSIS/Include/cmsis_gcc.h **** __attribute__( ( always_inline ) ) __STATIC_INLINE uint32_t __get_FAULTMASK(void)
 286:Drivers/STM32Cube_FW_F1_V1.4.0/CMSIS/Include/cmsis_gcc.h **** {
 287:Drivers/STM32Cube_FW_F1_V1.4.0/CMSIS/Include/cmsis_gcc.h ****   uint32_t result;
 288:Drivers/STM32Cube_FW_F1_V1.4.0/CMSIS/Include/cmsis_gcc.h **** 
 289:Drivers/STM32Cube_FW_F1_V1.4.0/CMSIS/Include/cmsis_gcc.h ****   __ASM volatile ("MRS %0, faultmask" : "=r" (result) );
 290:Drivers/STM32Cube_FW_F1_V1.4.0/CMSIS/Include/cmsis_gcc.h ****   return(result);
 291:Drivers/STM32Cube_FW_F1_V1.4.0/CMSIS/Include/cmsis_gcc.h **** }
 292:Drivers/STM32Cube_FW_F1_V1.4.0/CMSIS/Include/cmsis_gcc.h **** 
ARM GAS  /tmp/ccJA6ppf.s 			page 11


 293:Drivers/STM32Cube_FW_F1_V1.4.0/CMSIS/Include/cmsis_gcc.h **** 
 294:Drivers/STM32Cube_FW_F1_V1.4.0/CMSIS/Include/cmsis_gcc.h **** /**
 295:Drivers/STM32Cube_FW_F1_V1.4.0/CMSIS/Include/cmsis_gcc.h ****   \brief   Set Fault Mask
 296:Drivers/STM32Cube_FW_F1_V1.4.0/CMSIS/Include/cmsis_gcc.h ****   \details Assigns the given value to the Fault Mask register.
 297:Drivers/STM32Cube_FW_F1_V1.4.0/CMSIS/Include/cmsis_gcc.h ****   \param [in]    faultMask  Fault Mask value to set
 298:Drivers/STM32Cube_FW_F1_V1.4.0/CMSIS/Include/cmsis_gcc.h ****  */
 299:Drivers/STM32Cube_FW_F1_V1.4.0/CMSIS/Include/cmsis_gcc.h **** __attribute__( ( always_inline ) ) __STATIC_INLINE void __set_FAULTMASK(uint32_t faultMask)
 300:Drivers/STM32Cube_FW_F1_V1.4.0/CMSIS/Include/cmsis_gcc.h **** {
 301:Drivers/STM32Cube_FW_F1_V1.4.0/CMSIS/Include/cmsis_gcc.h ****   __ASM volatile ("MSR faultmask, %0" : : "r" (faultMask) : "memory");
 302:Drivers/STM32Cube_FW_F1_V1.4.0/CMSIS/Include/cmsis_gcc.h **** }
 303:Drivers/STM32Cube_FW_F1_V1.4.0/CMSIS/Include/cmsis_gcc.h **** 
 304:Drivers/STM32Cube_FW_F1_V1.4.0/CMSIS/Include/cmsis_gcc.h **** #endif /* (__CORTEX_M >= 0x03U) */
 305:Drivers/STM32Cube_FW_F1_V1.4.0/CMSIS/Include/cmsis_gcc.h **** 
 306:Drivers/STM32Cube_FW_F1_V1.4.0/CMSIS/Include/cmsis_gcc.h **** 
 307:Drivers/STM32Cube_FW_F1_V1.4.0/CMSIS/Include/cmsis_gcc.h **** #if       (__CORTEX_M == 0x04U) || (__CORTEX_M == 0x07U)
 308:Drivers/STM32Cube_FW_F1_V1.4.0/CMSIS/Include/cmsis_gcc.h **** 
 309:Drivers/STM32Cube_FW_F1_V1.4.0/CMSIS/Include/cmsis_gcc.h **** /**
 310:Drivers/STM32Cube_FW_F1_V1.4.0/CMSIS/Include/cmsis_gcc.h ****   \brief   Get FPSCR
 311:Drivers/STM32Cube_FW_F1_V1.4.0/CMSIS/Include/cmsis_gcc.h ****   \details Returns the current value of the Floating Point Status/Control register.
 312:Drivers/STM32Cube_FW_F1_V1.4.0/CMSIS/Include/cmsis_gcc.h ****   \return               Floating Point Status/Control register value
 313:Drivers/STM32Cube_FW_F1_V1.4.0/CMSIS/Include/cmsis_gcc.h ****  */
 314:Drivers/STM32Cube_FW_F1_V1.4.0/CMSIS/Include/cmsis_gcc.h **** __attribute__( ( always_inline ) ) __STATIC_INLINE uint32_t __get_FPSCR(void)
 315:Drivers/STM32Cube_FW_F1_V1.4.0/CMSIS/Include/cmsis_gcc.h **** {
 316:Drivers/STM32Cube_FW_F1_V1.4.0/CMSIS/Include/cmsis_gcc.h **** #if (__FPU_PRESENT == 1U) && (__FPU_USED == 1U)
 317:Drivers/STM32Cube_FW_F1_V1.4.0/CMSIS/Include/cmsis_gcc.h ****   uint32_t result;
 318:Drivers/STM32Cube_FW_F1_V1.4.0/CMSIS/Include/cmsis_gcc.h **** 
 319:Drivers/STM32Cube_FW_F1_V1.4.0/CMSIS/Include/cmsis_gcc.h ****   /* Empty asm statement works as a scheduling barrier */
 320:Drivers/STM32Cube_FW_F1_V1.4.0/CMSIS/Include/cmsis_gcc.h ****   __ASM volatile ("");
 321:Drivers/STM32Cube_FW_F1_V1.4.0/CMSIS/Include/cmsis_gcc.h ****   __ASM volatile ("VMRS %0, fpscr" : "=r" (result) );
 322:Drivers/STM32Cube_FW_F1_V1.4.0/CMSIS/Include/cmsis_gcc.h ****   __ASM volatile ("");
 323:Drivers/STM32Cube_FW_F1_V1.4.0/CMSIS/Include/cmsis_gcc.h ****   return(result);
 324:Drivers/STM32Cube_FW_F1_V1.4.0/CMSIS/Include/cmsis_gcc.h **** #else
 325:Drivers/STM32Cube_FW_F1_V1.4.0/CMSIS/Include/cmsis_gcc.h ****    return(0);
 326:Drivers/STM32Cube_FW_F1_V1.4.0/CMSIS/Include/cmsis_gcc.h **** #endif
 327:Drivers/STM32Cube_FW_F1_V1.4.0/CMSIS/Include/cmsis_gcc.h **** }
 328:Drivers/STM32Cube_FW_F1_V1.4.0/CMSIS/Include/cmsis_gcc.h **** 
 329:Drivers/STM32Cube_FW_F1_V1.4.0/CMSIS/Include/cmsis_gcc.h **** 
 330:Drivers/STM32Cube_FW_F1_V1.4.0/CMSIS/Include/cmsis_gcc.h **** /**
 331:Drivers/STM32Cube_FW_F1_V1.4.0/CMSIS/Include/cmsis_gcc.h ****   \brief   Set FPSCR
 332:Drivers/STM32Cube_FW_F1_V1.4.0/CMSIS/Include/cmsis_gcc.h ****   \details Assigns the given value to the Floating Point Status/Control register.
 333:Drivers/STM32Cube_FW_F1_V1.4.0/CMSIS/Include/cmsis_gcc.h ****   \param [in]    fpscr  Floating Point Status/Control value to set
 334:Drivers/STM32Cube_FW_F1_V1.4.0/CMSIS/Include/cmsis_gcc.h ****  */
 335:Drivers/STM32Cube_FW_F1_V1.4.0/CMSIS/Include/cmsis_gcc.h **** __attribute__( ( always_inline ) ) __STATIC_INLINE void __set_FPSCR(uint32_t fpscr)
 336:Drivers/STM32Cube_FW_F1_V1.4.0/CMSIS/Include/cmsis_gcc.h **** {
 337:Drivers/STM32Cube_FW_F1_V1.4.0/CMSIS/Include/cmsis_gcc.h **** #if (__FPU_PRESENT == 1U) && (__FPU_USED == 1U)
 338:Drivers/STM32Cube_FW_F1_V1.4.0/CMSIS/Include/cmsis_gcc.h ****   /* Empty asm statement works as a scheduling barrier */
 339:Drivers/STM32Cube_FW_F1_V1.4.0/CMSIS/Include/cmsis_gcc.h ****   __ASM volatile ("");
 340:Drivers/STM32Cube_FW_F1_V1.4.0/CMSIS/Include/cmsis_gcc.h ****   __ASM volatile ("VMSR fpscr, %0" : : "r" (fpscr) : "vfpcc");
 341:Drivers/STM32Cube_FW_F1_V1.4.0/CMSIS/Include/cmsis_gcc.h ****   __ASM volatile ("");
 342:Drivers/STM32Cube_FW_F1_V1.4.0/CMSIS/Include/cmsis_gcc.h **** #endif
 343:Drivers/STM32Cube_FW_F1_V1.4.0/CMSIS/Include/cmsis_gcc.h **** }
 344:Drivers/STM32Cube_FW_F1_V1.4.0/CMSIS/Include/cmsis_gcc.h **** 
 345:Drivers/STM32Cube_FW_F1_V1.4.0/CMSIS/Include/cmsis_gcc.h **** #endif /* (__CORTEX_M == 0x04U) || (__CORTEX_M == 0x07U) */
 346:Drivers/STM32Cube_FW_F1_V1.4.0/CMSIS/Include/cmsis_gcc.h **** 
 347:Drivers/STM32Cube_FW_F1_V1.4.0/CMSIS/Include/cmsis_gcc.h **** 
 348:Drivers/STM32Cube_FW_F1_V1.4.0/CMSIS/Include/cmsis_gcc.h **** 
 349:Drivers/STM32Cube_FW_F1_V1.4.0/CMSIS/Include/cmsis_gcc.h **** /*@} end of CMSIS_Core_RegAccFunctions */
ARM GAS  /tmp/ccJA6ppf.s 			page 12


 350:Drivers/STM32Cube_FW_F1_V1.4.0/CMSIS/Include/cmsis_gcc.h **** 
 351:Drivers/STM32Cube_FW_F1_V1.4.0/CMSIS/Include/cmsis_gcc.h **** 
 352:Drivers/STM32Cube_FW_F1_V1.4.0/CMSIS/Include/cmsis_gcc.h **** /* ##########################  Core Instruction Access  ######################### */
 353:Drivers/STM32Cube_FW_F1_V1.4.0/CMSIS/Include/cmsis_gcc.h **** /** \defgroup CMSIS_Core_InstructionInterface CMSIS Core Instruction Interface
 354:Drivers/STM32Cube_FW_F1_V1.4.0/CMSIS/Include/cmsis_gcc.h ****   Access to dedicated instructions
 355:Drivers/STM32Cube_FW_F1_V1.4.0/CMSIS/Include/cmsis_gcc.h ****   @{
 356:Drivers/STM32Cube_FW_F1_V1.4.0/CMSIS/Include/cmsis_gcc.h **** */
 357:Drivers/STM32Cube_FW_F1_V1.4.0/CMSIS/Include/cmsis_gcc.h **** 
 358:Drivers/STM32Cube_FW_F1_V1.4.0/CMSIS/Include/cmsis_gcc.h **** /* Define macros for porting to both thumb1 and thumb2.
 359:Drivers/STM32Cube_FW_F1_V1.4.0/CMSIS/Include/cmsis_gcc.h ****  * For thumb1, use low register (r0-r7), specified by constraint "l"
 360:Drivers/STM32Cube_FW_F1_V1.4.0/CMSIS/Include/cmsis_gcc.h ****  * Otherwise, use general registers, specified by constraint "r" */
 361:Drivers/STM32Cube_FW_F1_V1.4.0/CMSIS/Include/cmsis_gcc.h **** #if defined (__thumb__) && !defined (__thumb2__)
 362:Drivers/STM32Cube_FW_F1_V1.4.0/CMSIS/Include/cmsis_gcc.h **** #define __CMSIS_GCC_OUT_REG(r) "=l" (r)
 363:Drivers/STM32Cube_FW_F1_V1.4.0/CMSIS/Include/cmsis_gcc.h **** #define __CMSIS_GCC_USE_REG(r) "l" (r)
 364:Drivers/STM32Cube_FW_F1_V1.4.0/CMSIS/Include/cmsis_gcc.h **** #else
 365:Drivers/STM32Cube_FW_F1_V1.4.0/CMSIS/Include/cmsis_gcc.h **** #define __CMSIS_GCC_OUT_REG(r) "=r" (r)
 366:Drivers/STM32Cube_FW_F1_V1.4.0/CMSIS/Include/cmsis_gcc.h **** #define __CMSIS_GCC_USE_REG(r) "r" (r)
 367:Drivers/STM32Cube_FW_F1_V1.4.0/CMSIS/Include/cmsis_gcc.h **** #endif
 368:Drivers/STM32Cube_FW_F1_V1.4.0/CMSIS/Include/cmsis_gcc.h **** 
 369:Drivers/STM32Cube_FW_F1_V1.4.0/CMSIS/Include/cmsis_gcc.h **** /**
 370:Drivers/STM32Cube_FW_F1_V1.4.0/CMSIS/Include/cmsis_gcc.h ****   \brief   No Operation
 371:Drivers/STM32Cube_FW_F1_V1.4.0/CMSIS/Include/cmsis_gcc.h ****   \details No Operation does nothing. This instruction can be used for code alignment purposes.
 372:Drivers/STM32Cube_FW_F1_V1.4.0/CMSIS/Include/cmsis_gcc.h ****  */
 373:Drivers/STM32Cube_FW_F1_V1.4.0/CMSIS/Include/cmsis_gcc.h **** __attribute__((always_inline)) __STATIC_INLINE void __NOP(void)
 374:Drivers/STM32Cube_FW_F1_V1.4.0/CMSIS/Include/cmsis_gcc.h **** {
 375:Drivers/STM32Cube_FW_F1_V1.4.0/CMSIS/Include/cmsis_gcc.h ****   __ASM volatile ("nop");
 376:Drivers/STM32Cube_FW_F1_V1.4.0/CMSIS/Include/cmsis_gcc.h **** }
 377:Drivers/STM32Cube_FW_F1_V1.4.0/CMSIS/Include/cmsis_gcc.h **** 
 378:Drivers/STM32Cube_FW_F1_V1.4.0/CMSIS/Include/cmsis_gcc.h **** 
 379:Drivers/STM32Cube_FW_F1_V1.4.0/CMSIS/Include/cmsis_gcc.h **** /**
 380:Drivers/STM32Cube_FW_F1_V1.4.0/CMSIS/Include/cmsis_gcc.h ****   \brief   Wait For Interrupt
 381:Drivers/STM32Cube_FW_F1_V1.4.0/CMSIS/Include/cmsis_gcc.h ****   \details Wait For Interrupt is a hint instruction that suspends execution until one of a number o
 382:Drivers/STM32Cube_FW_F1_V1.4.0/CMSIS/Include/cmsis_gcc.h ****  */
 383:Drivers/STM32Cube_FW_F1_V1.4.0/CMSIS/Include/cmsis_gcc.h **** __attribute__((always_inline)) __STATIC_INLINE void __WFI(void)
 384:Drivers/STM32Cube_FW_F1_V1.4.0/CMSIS/Include/cmsis_gcc.h **** {
 385:Drivers/STM32Cube_FW_F1_V1.4.0/CMSIS/Include/cmsis_gcc.h ****   __ASM volatile ("wfi");
 386:Drivers/STM32Cube_FW_F1_V1.4.0/CMSIS/Include/cmsis_gcc.h **** }
 387:Drivers/STM32Cube_FW_F1_V1.4.0/CMSIS/Include/cmsis_gcc.h **** 
 388:Drivers/STM32Cube_FW_F1_V1.4.0/CMSIS/Include/cmsis_gcc.h **** 
 389:Drivers/STM32Cube_FW_F1_V1.4.0/CMSIS/Include/cmsis_gcc.h **** /**
 390:Drivers/STM32Cube_FW_F1_V1.4.0/CMSIS/Include/cmsis_gcc.h ****   \brief   Wait For Event
 391:Drivers/STM32Cube_FW_F1_V1.4.0/CMSIS/Include/cmsis_gcc.h ****   \details Wait For Event is a hint instruction that permits the processor to enter
 392:Drivers/STM32Cube_FW_F1_V1.4.0/CMSIS/Include/cmsis_gcc.h ****     a low-power state until one of a number of events occurs.
 393:Drivers/STM32Cube_FW_F1_V1.4.0/CMSIS/Include/cmsis_gcc.h ****  */
 394:Drivers/STM32Cube_FW_F1_V1.4.0/CMSIS/Include/cmsis_gcc.h **** __attribute__((always_inline)) __STATIC_INLINE void __WFE(void)
 395:Drivers/STM32Cube_FW_F1_V1.4.0/CMSIS/Include/cmsis_gcc.h **** {
 396:Drivers/STM32Cube_FW_F1_V1.4.0/CMSIS/Include/cmsis_gcc.h ****   __ASM volatile ("wfe");
 397:Drivers/STM32Cube_FW_F1_V1.4.0/CMSIS/Include/cmsis_gcc.h **** }
 398:Drivers/STM32Cube_FW_F1_V1.4.0/CMSIS/Include/cmsis_gcc.h **** 
 399:Drivers/STM32Cube_FW_F1_V1.4.0/CMSIS/Include/cmsis_gcc.h **** 
 400:Drivers/STM32Cube_FW_F1_V1.4.0/CMSIS/Include/cmsis_gcc.h **** /**
 401:Drivers/STM32Cube_FW_F1_V1.4.0/CMSIS/Include/cmsis_gcc.h ****   \brief   Send Event
 402:Drivers/STM32Cube_FW_F1_V1.4.0/CMSIS/Include/cmsis_gcc.h ****   \details Send Event is a hint instruction. It causes an event to be signaled to the CPU.
 403:Drivers/STM32Cube_FW_F1_V1.4.0/CMSIS/Include/cmsis_gcc.h ****  */
 404:Drivers/STM32Cube_FW_F1_V1.4.0/CMSIS/Include/cmsis_gcc.h **** __attribute__((always_inline)) __STATIC_INLINE void __SEV(void)
 405:Drivers/STM32Cube_FW_F1_V1.4.0/CMSIS/Include/cmsis_gcc.h **** {
 406:Drivers/STM32Cube_FW_F1_V1.4.0/CMSIS/Include/cmsis_gcc.h ****   __ASM volatile ("sev");
ARM GAS  /tmp/ccJA6ppf.s 			page 13


 407:Drivers/STM32Cube_FW_F1_V1.4.0/CMSIS/Include/cmsis_gcc.h **** }
 408:Drivers/STM32Cube_FW_F1_V1.4.0/CMSIS/Include/cmsis_gcc.h **** 
 409:Drivers/STM32Cube_FW_F1_V1.4.0/CMSIS/Include/cmsis_gcc.h **** 
 410:Drivers/STM32Cube_FW_F1_V1.4.0/CMSIS/Include/cmsis_gcc.h **** /**
 411:Drivers/STM32Cube_FW_F1_V1.4.0/CMSIS/Include/cmsis_gcc.h ****   \brief   Instruction Synchronization Barrier
 412:Drivers/STM32Cube_FW_F1_V1.4.0/CMSIS/Include/cmsis_gcc.h ****   \details Instruction Synchronization Barrier flushes the pipeline in the processor,
 413:Drivers/STM32Cube_FW_F1_V1.4.0/CMSIS/Include/cmsis_gcc.h ****            so that all instructions following the ISB are fetched from cache or memory,
 414:Drivers/STM32Cube_FW_F1_V1.4.0/CMSIS/Include/cmsis_gcc.h ****            after the instruction has been completed.
 415:Drivers/STM32Cube_FW_F1_V1.4.0/CMSIS/Include/cmsis_gcc.h ****  */
 416:Drivers/STM32Cube_FW_F1_V1.4.0/CMSIS/Include/cmsis_gcc.h **** __attribute__((always_inline)) __STATIC_INLINE void __ISB(void)
 417:Drivers/STM32Cube_FW_F1_V1.4.0/CMSIS/Include/cmsis_gcc.h **** {
 418:Drivers/STM32Cube_FW_F1_V1.4.0/CMSIS/Include/cmsis_gcc.h ****   __ASM volatile ("isb 0xF":::"memory");
 419:Drivers/STM32Cube_FW_F1_V1.4.0/CMSIS/Include/cmsis_gcc.h **** }
 420:Drivers/STM32Cube_FW_F1_V1.4.0/CMSIS/Include/cmsis_gcc.h **** 
 421:Drivers/STM32Cube_FW_F1_V1.4.0/CMSIS/Include/cmsis_gcc.h **** 
 422:Drivers/STM32Cube_FW_F1_V1.4.0/CMSIS/Include/cmsis_gcc.h **** /**
 423:Drivers/STM32Cube_FW_F1_V1.4.0/CMSIS/Include/cmsis_gcc.h ****   \brief   Data Synchronization Barrier
 424:Drivers/STM32Cube_FW_F1_V1.4.0/CMSIS/Include/cmsis_gcc.h ****   \details Acts as a special kind of Data Memory Barrier.
 425:Drivers/STM32Cube_FW_F1_V1.4.0/CMSIS/Include/cmsis_gcc.h ****            It completes when all explicit memory accesses before this instruction complete.
 426:Drivers/STM32Cube_FW_F1_V1.4.0/CMSIS/Include/cmsis_gcc.h ****  */
 427:Drivers/STM32Cube_FW_F1_V1.4.0/CMSIS/Include/cmsis_gcc.h **** __attribute__((always_inline)) __STATIC_INLINE void __DSB(void)
 428:Drivers/STM32Cube_FW_F1_V1.4.0/CMSIS/Include/cmsis_gcc.h **** {
 429:Drivers/STM32Cube_FW_F1_V1.4.0/CMSIS/Include/cmsis_gcc.h ****   __ASM volatile ("dsb 0xF":::"memory");
 430:Drivers/STM32Cube_FW_F1_V1.4.0/CMSIS/Include/cmsis_gcc.h **** }
 431:Drivers/STM32Cube_FW_F1_V1.4.0/CMSIS/Include/cmsis_gcc.h **** 
 432:Drivers/STM32Cube_FW_F1_V1.4.0/CMSIS/Include/cmsis_gcc.h **** 
 433:Drivers/STM32Cube_FW_F1_V1.4.0/CMSIS/Include/cmsis_gcc.h **** /**
 434:Drivers/STM32Cube_FW_F1_V1.4.0/CMSIS/Include/cmsis_gcc.h ****   \brief   Data Memory Barrier
 435:Drivers/STM32Cube_FW_F1_V1.4.0/CMSIS/Include/cmsis_gcc.h ****   \details Ensures the apparent order of the explicit memory operations before
 436:Drivers/STM32Cube_FW_F1_V1.4.0/CMSIS/Include/cmsis_gcc.h ****            and after the instruction, without ensuring their completion.
 437:Drivers/STM32Cube_FW_F1_V1.4.0/CMSIS/Include/cmsis_gcc.h ****  */
 438:Drivers/STM32Cube_FW_F1_V1.4.0/CMSIS/Include/cmsis_gcc.h **** __attribute__((always_inline)) __STATIC_INLINE void __DMB(void)
 439:Drivers/STM32Cube_FW_F1_V1.4.0/CMSIS/Include/cmsis_gcc.h **** {
 440:Drivers/STM32Cube_FW_F1_V1.4.0/CMSIS/Include/cmsis_gcc.h ****   __ASM volatile ("dmb 0xF":::"memory");
 441:Drivers/STM32Cube_FW_F1_V1.4.0/CMSIS/Include/cmsis_gcc.h **** }
 442:Drivers/STM32Cube_FW_F1_V1.4.0/CMSIS/Include/cmsis_gcc.h **** 
 443:Drivers/STM32Cube_FW_F1_V1.4.0/CMSIS/Include/cmsis_gcc.h **** 
 444:Drivers/STM32Cube_FW_F1_V1.4.0/CMSIS/Include/cmsis_gcc.h **** /**
 445:Drivers/STM32Cube_FW_F1_V1.4.0/CMSIS/Include/cmsis_gcc.h ****   \brief   Reverse byte order (32 bit)
 446:Drivers/STM32Cube_FW_F1_V1.4.0/CMSIS/Include/cmsis_gcc.h ****   \details Reverses the byte order in integer value.
 447:Drivers/STM32Cube_FW_F1_V1.4.0/CMSIS/Include/cmsis_gcc.h ****   \param [in]    value  Value to reverse
 448:Drivers/STM32Cube_FW_F1_V1.4.0/CMSIS/Include/cmsis_gcc.h ****   \return               Reversed value
 449:Drivers/STM32Cube_FW_F1_V1.4.0/CMSIS/Include/cmsis_gcc.h ****  */
 450:Drivers/STM32Cube_FW_F1_V1.4.0/CMSIS/Include/cmsis_gcc.h **** __attribute__((always_inline)) __STATIC_INLINE uint32_t __REV(uint32_t value)
 451:Drivers/STM32Cube_FW_F1_V1.4.0/CMSIS/Include/cmsis_gcc.h **** {
 452:Drivers/STM32Cube_FW_F1_V1.4.0/CMSIS/Include/cmsis_gcc.h **** #if (__GNUC__ > 4) || (__GNUC__ == 4 && __GNUC_MINOR__ >= 5)
 453:Drivers/STM32Cube_FW_F1_V1.4.0/CMSIS/Include/cmsis_gcc.h ****   return __builtin_bswap32(value);
 454:Drivers/STM32Cube_FW_F1_V1.4.0/CMSIS/Include/cmsis_gcc.h **** #else
 455:Drivers/STM32Cube_FW_F1_V1.4.0/CMSIS/Include/cmsis_gcc.h ****   uint32_t result;
 456:Drivers/STM32Cube_FW_F1_V1.4.0/CMSIS/Include/cmsis_gcc.h **** 
 457:Drivers/STM32Cube_FW_F1_V1.4.0/CMSIS/Include/cmsis_gcc.h ****   __ASM volatile ("rev %0, %1" : __CMSIS_GCC_OUT_REG (result) : __CMSIS_GCC_USE_REG (value) );
 458:Drivers/STM32Cube_FW_F1_V1.4.0/CMSIS/Include/cmsis_gcc.h ****   return(result);
 459:Drivers/STM32Cube_FW_F1_V1.4.0/CMSIS/Include/cmsis_gcc.h **** #endif
 460:Drivers/STM32Cube_FW_F1_V1.4.0/CMSIS/Include/cmsis_gcc.h **** }
 461:Drivers/STM32Cube_FW_F1_V1.4.0/CMSIS/Include/cmsis_gcc.h **** 
 462:Drivers/STM32Cube_FW_F1_V1.4.0/CMSIS/Include/cmsis_gcc.h **** 
 463:Drivers/STM32Cube_FW_F1_V1.4.0/CMSIS/Include/cmsis_gcc.h **** /**
ARM GAS  /tmp/ccJA6ppf.s 			page 14


 464:Drivers/STM32Cube_FW_F1_V1.4.0/CMSIS/Include/cmsis_gcc.h ****   \brief   Reverse byte order (16 bit)
 465:Drivers/STM32Cube_FW_F1_V1.4.0/CMSIS/Include/cmsis_gcc.h ****   \details Reverses the byte order in two unsigned short values.
 466:Drivers/STM32Cube_FW_F1_V1.4.0/CMSIS/Include/cmsis_gcc.h ****   \param [in]    value  Value to reverse
 467:Drivers/STM32Cube_FW_F1_V1.4.0/CMSIS/Include/cmsis_gcc.h ****   \return               Reversed value
 468:Drivers/STM32Cube_FW_F1_V1.4.0/CMSIS/Include/cmsis_gcc.h ****  */
 469:Drivers/STM32Cube_FW_F1_V1.4.0/CMSIS/Include/cmsis_gcc.h **** __attribute__((always_inline)) __STATIC_INLINE uint32_t __REV16(uint32_t value)
 470:Drivers/STM32Cube_FW_F1_V1.4.0/CMSIS/Include/cmsis_gcc.h **** {
 471:Drivers/STM32Cube_FW_F1_V1.4.0/CMSIS/Include/cmsis_gcc.h ****   uint32_t result;
 472:Drivers/STM32Cube_FW_F1_V1.4.0/CMSIS/Include/cmsis_gcc.h **** 
 473:Drivers/STM32Cube_FW_F1_V1.4.0/CMSIS/Include/cmsis_gcc.h ****   __ASM volatile ("rev16 %0, %1" : __CMSIS_GCC_OUT_REG (result) : __CMSIS_GCC_USE_REG (value) );
 474:Drivers/STM32Cube_FW_F1_V1.4.0/CMSIS/Include/cmsis_gcc.h ****   return(result);
 475:Drivers/STM32Cube_FW_F1_V1.4.0/CMSIS/Include/cmsis_gcc.h **** }
 476:Drivers/STM32Cube_FW_F1_V1.4.0/CMSIS/Include/cmsis_gcc.h **** 
 477:Drivers/STM32Cube_FW_F1_V1.4.0/CMSIS/Include/cmsis_gcc.h **** 
 478:Drivers/STM32Cube_FW_F1_V1.4.0/CMSIS/Include/cmsis_gcc.h **** /**
 479:Drivers/STM32Cube_FW_F1_V1.4.0/CMSIS/Include/cmsis_gcc.h ****   \brief   Reverse byte order in signed short value
 480:Drivers/STM32Cube_FW_F1_V1.4.0/CMSIS/Include/cmsis_gcc.h ****   \details Reverses the byte order in a signed short value with sign extension to integer.
 481:Drivers/STM32Cube_FW_F1_V1.4.0/CMSIS/Include/cmsis_gcc.h ****   \param [in]    value  Value to reverse
 482:Drivers/STM32Cube_FW_F1_V1.4.0/CMSIS/Include/cmsis_gcc.h ****   \return               Reversed value
 483:Drivers/STM32Cube_FW_F1_V1.4.0/CMSIS/Include/cmsis_gcc.h ****  */
 484:Drivers/STM32Cube_FW_F1_V1.4.0/CMSIS/Include/cmsis_gcc.h **** __attribute__((always_inline)) __STATIC_INLINE int32_t __REVSH(int32_t value)
 485:Drivers/STM32Cube_FW_F1_V1.4.0/CMSIS/Include/cmsis_gcc.h **** {
 486:Drivers/STM32Cube_FW_F1_V1.4.0/CMSIS/Include/cmsis_gcc.h **** #if (__GNUC__ > 4) || (__GNUC__ == 4 && __GNUC_MINOR__ >= 8)
 487:Drivers/STM32Cube_FW_F1_V1.4.0/CMSIS/Include/cmsis_gcc.h ****   return (short)__builtin_bswap16(value);
 488:Drivers/STM32Cube_FW_F1_V1.4.0/CMSIS/Include/cmsis_gcc.h **** #else
 489:Drivers/STM32Cube_FW_F1_V1.4.0/CMSIS/Include/cmsis_gcc.h ****   int32_t result;
 490:Drivers/STM32Cube_FW_F1_V1.4.0/CMSIS/Include/cmsis_gcc.h **** 
 491:Drivers/STM32Cube_FW_F1_V1.4.0/CMSIS/Include/cmsis_gcc.h ****   __ASM volatile ("revsh %0, %1" : __CMSIS_GCC_OUT_REG (result) : __CMSIS_GCC_USE_REG (value) );
 492:Drivers/STM32Cube_FW_F1_V1.4.0/CMSIS/Include/cmsis_gcc.h ****   return(result);
 493:Drivers/STM32Cube_FW_F1_V1.4.0/CMSIS/Include/cmsis_gcc.h **** #endif
 494:Drivers/STM32Cube_FW_F1_V1.4.0/CMSIS/Include/cmsis_gcc.h **** }
 495:Drivers/STM32Cube_FW_F1_V1.4.0/CMSIS/Include/cmsis_gcc.h **** 
 496:Drivers/STM32Cube_FW_F1_V1.4.0/CMSIS/Include/cmsis_gcc.h **** 
 497:Drivers/STM32Cube_FW_F1_V1.4.0/CMSIS/Include/cmsis_gcc.h **** /**
 498:Drivers/STM32Cube_FW_F1_V1.4.0/CMSIS/Include/cmsis_gcc.h ****   \brief   Rotate Right in unsigned value (32 bit)
 499:Drivers/STM32Cube_FW_F1_V1.4.0/CMSIS/Include/cmsis_gcc.h ****   \details Rotate Right (immediate) provides the value of the contents of a register rotated by a v
 500:Drivers/STM32Cube_FW_F1_V1.4.0/CMSIS/Include/cmsis_gcc.h ****   \param [in]    value  Value to rotate
 501:Drivers/STM32Cube_FW_F1_V1.4.0/CMSIS/Include/cmsis_gcc.h ****   \param [in]    value  Number of Bits to rotate
 502:Drivers/STM32Cube_FW_F1_V1.4.0/CMSIS/Include/cmsis_gcc.h ****   \return               Rotated value
 503:Drivers/STM32Cube_FW_F1_V1.4.0/CMSIS/Include/cmsis_gcc.h ****  */
 504:Drivers/STM32Cube_FW_F1_V1.4.0/CMSIS/Include/cmsis_gcc.h **** __attribute__((always_inline)) __STATIC_INLINE uint32_t __ROR(uint32_t op1, uint32_t op2)
 505:Drivers/STM32Cube_FW_F1_V1.4.0/CMSIS/Include/cmsis_gcc.h **** {
 506:Drivers/STM32Cube_FW_F1_V1.4.0/CMSIS/Include/cmsis_gcc.h ****   return (op1 >> op2) | (op1 << (32U - op2));
 507:Drivers/STM32Cube_FW_F1_V1.4.0/CMSIS/Include/cmsis_gcc.h **** }
 508:Drivers/STM32Cube_FW_F1_V1.4.0/CMSIS/Include/cmsis_gcc.h **** 
 509:Drivers/STM32Cube_FW_F1_V1.4.0/CMSIS/Include/cmsis_gcc.h **** 
 510:Drivers/STM32Cube_FW_F1_V1.4.0/CMSIS/Include/cmsis_gcc.h **** /**
 511:Drivers/STM32Cube_FW_F1_V1.4.0/CMSIS/Include/cmsis_gcc.h ****   \brief   Breakpoint
 512:Drivers/STM32Cube_FW_F1_V1.4.0/CMSIS/Include/cmsis_gcc.h ****   \details Causes the processor to enter Debug state.
 513:Drivers/STM32Cube_FW_F1_V1.4.0/CMSIS/Include/cmsis_gcc.h ****            Debug tools can use this to investigate system state when the instruction at a particula
 514:Drivers/STM32Cube_FW_F1_V1.4.0/CMSIS/Include/cmsis_gcc.h ****   \param [in]    value  is ignored by the processor.
 515:Drivers/STM32Cube_FW_F1_V1.4.0/CMSIS/Include/cmsis_gcc.h ****                  If required, a debugger can use it to store additional information about the break
 516:Drivers/STM32Cube_FW_F1_V1.4.0/CMSIS/Include/cmsis_gcc.h ****  */
 517:Drivers/STM32Cube_FW_F1_V1.4.0/CMSIS/Include/cmsis_gcc.h **** #define __BKPT(value)                       __ASM volatile ("bkpt "#value)
 518:Drivers/STM32Cube_FW_F1_V1.4.0/CMSIS/Include/cmsis_gcc.h **** 
 519:Drivers/STM32Cube_FW_F1_V1.4.0/CMSIS/Include/cmsis_gcc.h **** 
 520:Drivers/STM32Cube_FW_F1_V1.4.0/CMSIS/Include/cmsis_gcc.h **** /**
ARM GAS  /tmp/ccJA6ppf.s 			page 15


 521:Drivers/STM32Cube_FW_F1_V1.4.0/CMSIS/Include/cmsis_gcc.h ****   \brief   Reverse bit order of value
 522:Drivers/STM32Cube_FW_F1_V1.4.0/CMSIS/Include/cmsis_gcc.h ****   \details Reverses the bit order of the given value.
 523:Drivers/STM32Cube_FW_F1_V1.4.0/CMSIS/Include/cmsis_gcc.h ****   \param [in]    value  Value to reverse
 524:Drivers/STM32Cube_FW_F1_V1.4.0/CMSIS/Include/cmsis_gcc.h ****   \return               Reversed value
 525:Drivers/STM32Cube_FW_F1_V1.4.0/CMSIS/Include/cmsis_gcc.h ****  */
 526:Drivers/STM32Cube_FW_F1_V1.4.0/CMSIS/Include/cmsis_gcc.h **** __attribute__((always_inline)) __STATIC_INLINE uint32_t __RBIT(uint32_t value)
 527:Drivers/STM32Cube_FW_F1_V1.4.0/CMSIS/Include/cmsis_gcc.h **** {
 528:Drivers/STM32Cube_FW_F1_V1.4.0/CMSIS/Include/cmsis_gcc.h ****   uint32_t result;
 529:Drivers/STM32Cube_FW_F1_V1.4.0/CMSIS/Include/cmsis_gcc.h **** 
 530:Drivers/STM32Cube_FW_F1_V1.4.0/CMSIS/Include/cmsis_gcc.h **** #if       (__CORTEX_M >= 0x03U) || (__CORTEX_SC >= 300U)
 531:Drivers/STM32Cube_FW_F1_V1.4.0/CMSIS/Include/cmsis_gcc.h ****    __ASM volatile ("rbit %0, %1" : "=r" (result) : "r" (value) );
  96              		.loc 2 531 0
  97 0000 4FF48073 		mov	r3, #256
  98              		.syntax unified
  99              	@ 531 "Drivers/STM32Cube_FW_F1_V1.4.0/CMSIS/Include/cmsis_gcc.h" 1
 100 0004 93FAA3F3 		rbit r3, r3
 101              	@ 0 "" 2
 102              	.LVL1:
 103              		.thumb
 104              		.syntax unified
 105              	.LBE29:
 106              	.LBE28:
 189:Drivers/STM32Cube_FW_F1_V1.4.0/STM32F1xx_HAL_Driver/Src/stm32f1xx_hal_pwr.c ****   /* Enable access to RTC and backup registers */
 190:Drivers/STM32Cube_FW_F1_V1.4.0/STM32F1xx_HAL_Driver/Src/stm32f1xx_hal_pwr.c ****   *(__IO uint32_t *) CR_DBP_BB = (uint32_t)ENABLE;
 107              		.loc 1 190 0
 108 0008 B3FA83F3 		clz	r3, r3
 109 000c 9B00     		lsls	r3, r3, #2
 110 000e 03F18443 		add	r3, r3, #1107296256
 111 0012 03F56023 		add	r3, r3, #917504
 112 0016 0122     		movs	r2, #1
 113 0018 1A60     		str	r2, [r3]
 114 001a 7047     		bx	lr
 115              		.cfi_endproc
 116              	.LFE66:
 118              		.section	.text.HAL_PWR_DisableBkUpAccess,"ax",%progbits
 119              		.align	1
 120              		.global	HAL_PWR_DisableBkUpAccess
 121              		.syntax unified
 122              		.thumb
 123              		.thumb_func
 124              		.fpu softvfp
 126              	HAL_PWR_DisableBkUpAccess:
 127              	.LFB67:
 191:Drivers/STM32Cube_FW_F1_V1.4.0/STM32F1xx_HAL_Driver/Src/stm32f1xx_hal_pwr.c **** }
 192:Drivers/STM32Cube_FW_F1_V1.4.0/STM32F1xx_HAL_Driver/Src/stm32f1xx_hal_pwr.c **** 
 193:Drivers/STM32Cube_FW_F1_V1.4.0/STM32F1xx_HAL_Driver/Src/stm32f1xx_hal_pwr.c **** /**
 194:Drivers/STM32Cube_FW_F1_V1.4.0/STM32F1xx_HAL_Driver/Src/stm32f1xx_hal_pwr.c ****   * @brief  Disables access to the backup domain (RTC registers, RTC
 195:Drivers/STM32Cube_FW_F1_V1.4.0/STM32F1xx_HAL_Driver/Src/stm32f1xx_hal_pwr.c ****   *         backup data registers).
 196:Drivers/STM32Cube_FW_F1_V1.4.0/STM32F1xx_HAL_Driver/Src/stm32f1xx_hal_pwr.c ****   * @note   If the HSE divided by 128 is used as the RTC clock, the
 197:Drivers/STM32Cube_FW_F1_V1.4.0/STM32F1xx_HAL_Driver/Src/stm32f1xx_hal_pwr.c ****   *         Backup Domain Access should be kept enabled.
 198:Drivers/STM32Cube_FW_F1_V1.4.0/STM32F1xx_HAL_Driver/Src/stm32f1xx_hal_pwr.c ****   * @retval None
 199:Drivers/STM32Cube_FW_F1_V1.4.0/STM32F1xx_HAL_Driver/Src/stm32f1xx_hal_pwr.c ****   */
 200:Drivers/STM32Cube_FW_F1_V1.4.0/STM32F1xx_HAL_Driver/Src/stm32f1xx_hal_pwr.c **** void HAL_PWR_DisableBkUpAccess(void)
 201:Drivers/STM32Cube_FW_F1_V1.4.0/STM32F1xx_HAL_Driver/Src/stm32f1xx_hal_pwr.c **** {
 128              		.loc 1 201 0
 129              		.cfi_startproc
 130              		@ args = 0, pretend = 0, frame = 0
ARM GAS  /tmp/ccJA6ppf.s 			page 16


 131              		@ frame_needed = 0, uses_anonymous_args = 0
 132              		@ link register save eliminated.
 133              	.LVL2:
 134              	.LBB30:
 135              	.LBB31:
 136              		.loc 2 531 0
 137 0000 4FF48073 		mov	r3, #256
 138              		.syntax unified
 139              	@ 531 "Drivers/STM32Cube_FW_F1_V1.4.0/CMSIS/Include/cmsis_gcc.h" 1
 140 0004 93FAA3F3 		rbit r3, r3
 141              	@ 0 "" 2
 142              	.LVL3:
 143              		.thumb
 144              		.syntax unified
 145              	.LBE31:
 146              	.LBE30:
 202:Drivers/STM32Cube_FW_F1_V1.4.0/STM32F1xx_HAL_Driver/Src/stm32f1xx_hal_pwr.c ****   /* Disable access to RTC and backup registers */
 203:Drivers/STM32Cube_FW_F1_V1.4.0/STM32F1xx_HAL_Driver/Src/stm32f1xx_hal_pwr.c ****   *(__IO uint32_t *) CR_DBP_BB = (uint32_t)DISABLE;
 147              		.loc 1 203 0
 148 0008 B3FA83F3 		clz	r3, r3
 149 000c 9B00     		lsls	r3, r3, #2
 150 000e 03F18443 		add	r3, r3, #1107296256
 151 0012 03F56023 		add	r3, r3, #917504
 152 0016 0022     		movs	r2, #0
 153 0018 1A60     		str	r2, [r3]
 154 001a 7047     		bx	lr
 155              		.cfi_endproc
 156              	.LFE67:
 158              		.section	.text.HAL_PWR_ConfigPVD,"ax",%progbits
 159              		.align	1
 160              		.global	HAL_PWR_ConfigPVD
 161              		.syntax unified
 162              		.thumb
 163              		.thumb_func
 164              		.fpu softvfp
 166              	HAL_PWR_ConfigPVD:
 167              	.LFB68:
 204:Drivers/STM32Cube_FW_F1_V1.4.0/STM32F1xx_HAL_Driver/Src/stm32f1xx_hal_pwr.c **** }
 205:Drivers/STM32Cube_FW_F1_V1.4.0/STM32F1xx_HAL_Driver/Src/stm32f1xx_hal_pwr.c **** 
 206:Drivers/STM32Cube_FW_F1_V1.4.0/STM32F1xx_HAL_Driver/Src/stm32f1xx_hal_pwr.c **** /**
 207:Drivers/STM32Cube_FW_F1_V1.4.0/STM32F1xx_HAL_Driver/Src/stm32f1xx_hal_pwr.c ****   * @}
 208:Drivers/STM32Cube_FW_F1_V1.4.0/STM32F1xx_HAL_Driver/Src/stm32f1xx_hal_pwr.c ****   */
 209:Drivers/STM32Cube_FW_F1_V1.4.0/STM32F1xx_HAL_Driver/Src/stm32f1xx_hal_pwr.c **** 
 210:Drivers/STM32Cube_FW_F1_V1.4.0/STM32F1xx_HAL_Driver/Src/stm32f1xx_hal_pwr.c **** /** @defgroup PWR_Exported_Functions_Group2 Peripheral Control functions 
 211:Drivers/STM32Cube_FW_F1_V1.4.0/STM32F1xx_HAL_Driver/Src/stm32f1xx_hal_pwr.c ****   * @brief    Low Power modes configuration functions
 212:Drivers/STM32Cube_FW_F1_V1.4.0/STM32F1xx_HAL_Driver/Src/stm32f1xx_hal_pwr.c ****   *
 213:Drivers/STM32Cube_FW_F1_V1.4.0/STM32F1xx_HAL_Driver/Src/stm32f1xx_hal_pwr.c **** @verbatim
 214:Drivers/STM32Cube_FW_F1_V1.4.0/STM32F1xx_HAL_Driver/Src/stm32f1xx_hal_pwr.c ****  ===============================================================================
 215:Drivers/STM32Cube_FW_F1_V1.4.0/STM32F1xx_HAL_Driver/Src/stm32f1xx_hal_pwr.c ****                  ##### Peripheral Control functions #####
 216:Drivers/STM32Cube_FW_F1_V1.4.0/STM32F1xx_HAL_Driver/Src/stm32f1xx_hal_pwr.c ****  ===============================================================================
 217:Drivers/STM32Cube_FW_F1_V1.4.0/STM32F1xx_HAL_Driver/Src/stm32f1xx_hal_pwr.c ****      
 218:Drivers/STM32Cube_FW_F1_V1.4.0/STM32F1xx_HAL_Driver/Src/stm32f1xx_hal_pwr.c ****     *** PVD configuration ***
 219:Drivers/STM32Cube_FW_F1_V1.4.0/STM32F1xx_HAL_Driver/Src/stm32f1xx_hal_pwr.c ****     =========================
 220:Drivers/STM32Cube_FW_F1_V1.4.0/STM32F1xx_HAL_Driver/Src/stm32f1xx_hal_pwr.c ****     [..]
 221:Drivers/STM32Cube_FW_F1_V1.4.0/STM32F1xx_HAL_Driver/Src/stm32f1xx_hal_pwr.c ****       (+) The PVD is used to monitor the VDD power supply by comparing it to a
 222:Drivers/STM32Cube_FW_F1_V1.4.0/STM32F1xx_HAL_Driver/Src/stm32f1xx_hal_pwr.c ****           threshold selected by the PVD Level (PLS[2:0] bits in the PWR_CR).
 223:Drivers/STM32Cube_FW_F1_V1.4.0/STM32F1xx_HAL_Driver/Src/stm32f1xx_hal_pwr.c **** 
ARM GAS  /tmp/ccJA6ppf.s 			page 17


 224:Drivers/STM32Cube_FW_F1_V1.4.0/STM32F1xx_HAL_Driver/Src/stm32f1xx_hal_pwr.c ****       (+) A PVDO flag is available to indicate if VDD/VDDA is higher or lower
 225:Drivers/STM32Cube_FW_F1_V1.4.0/STM32F1xx_HAL_Driver/Src/stm32f1xx_hal_pwr.c ****           than the PVD threshold. This event is internally connected to the EXTI
 226:Drivers/STM32Cube_FW_F1_V1.4.0/STM32F1xx_HAL_Driver/Src/stm32f1xx_hal_pwr.c ****           line16 and can generate an interrupt if enabled. This is done through
 227:Drivers/STM32Cube_FW_F1_V1.4.0/STM32F1xx_HAL_Driver/Src/stm32f1xx_hal_pwr.c ****           __HAL_PVD_EXTI_ENABLE_IT() macro.
 228:Drivers/STM32Cube_FW_F1_V1.4.0/STM32F1xx_HAL_Driver/Src/stm32f1xx_hal_pwr.c ****       (+) The PVD is stopped in Standby mode.
 229:Drivers/STM32Cube_FW_F1_V1.4.0/STM32F1xx_HAL_Driver/Src/stm32f1xx_hal_pwr.c **** 
 230:Drivers/STM32Cube_FW_F1_V1.4.0/STM32F1xx_HAL_Driver/Src/stm32f1xx_hal_pwr.c ****     *** WakeUp pin configuration ***
 231:Drivers/STM32Cube_FW_F1_V1.4.0/STM32F1xx_HAL_Driver/Src/stm32f1xx_hal_pwr.c ****     ================================
 232:Drivers/STM32Cube_FW_F1_V1.4.0/STM32F1xx_HAL_Driver/Src/stm32f1xx_hal_pwr.c ****     [..]
 233:Drivers/STM32Cube_FW_F1_V1.4.0/STM32F1xx_HAL_Driver/Src/stm32f1xx_hal_pwr.c ****       (+) WakeUp pin is used to wake up the system from Standby mode. This pin is
 234:Drivers/STM32Cube_FW_F1_V1.4.0/STM32F1xx_HAL_Driver/Src/stm32f1xx_hal_pwr.c ****           forced in input pull-down configuration and is active on rising edges.
 235:Drivers/STM32Cube_FW_F1_V1.4.0/STM32F1xx_HAL_Driver/Src/stm32f1xx_hal_pwr.c ****       (+) There is one WakeUp pin:
 236:Drivers/STM32Cube_FW_F1_V1.4.0/STM32F1xx_HAL_Driver/Src/stm32f1xx_hal_pwr.c ****           WakeUp Pin 1 on PA.00.
 237:Drivers/STM32Cube_FW_F1_V1.4.0/STM32F1xx_HAL_Driver/Src/stm32f1xx_hal_pwr.c **** 
 238:Drivers/STM32Cube_FW_F1_V1.4.0/STM32F1xx_HAL_Driver/Src/stm32f1xx_hal_pwr.c ****     [..]
 239:Drivers/STM32Cube_FW_F1_V1.4.0/STM32F1xx_HAL_Driver/Src/stm32f1xx_hal_pwr.c **** 
 240:Drivers/STM32Cube_FW_F1_V1.4.0/STM32F1xx_HAL_Driver/Src/stm32f1xx_hal_pwr.c ****     *** Low Power modes configuration ***
 241:Drivers/STM32Cube_FW_F1_V1.4.0/STM32F1xx_HAL_Driver/Src/stm32f1xx_hal_pwr.c ****     =====================================
 242:Drivers/STM32Cube_FW_F1_V1.4.0/STM32F1xx_HAL_Driver/Src/stm32f1xx_hal_pwr.c ****      [..]
 243:Drivers/STM32Cube_FW_F1_V1.4.0/STM32F1xx_HAL_Driver/Src/stm32f1xx_hal_pwr.c ****       The device features 3 low-power modes:
 244:Drivers/STM32Cube_FW_F1_V1.4.0/STM32F1xx_HAL_Driver/Src/stm32f1xx_hal_pwr.c ****       (+) Sleep mode: CPU clock off, all peripherals including Cortex-M3 core peripherals like 
 245:Drivers/STM32Cube_FW_F1_V1.4.0/STM32F1xx_HAL_Driver/Src/stm32f1xx_hal_pwr.c ****                       NVIC, SysTick, etc. are kept running
 246:Drivers/STM32Cube_FW_F1_V1.4.0/STM32F1xx_HAL_Driver/Src/stm32f1xx_hal_pwr.c ****       (+) Stop mode: All clocks are stopped
 247:Drivers/STM32Cube_FW_F1_V1.4.0/STM32F1xx_HAL_Driver/Src/stm32f1xx_hal_pwr.c ****       (+) Standby mode: 1.8V domain powered off
 248:Drivers/STM32Cube_FW_F1_V1.4.0/STM32F1xx_HAL_Driver/Src/stm32f1xx_hal_pwr.c ****   
 249:Drivers/STM32Cube_FW_F1_V1.4.0/STM32F1xx_HAL_Driver/Src/stm32f1xx_hal_pwr.c ****   
 250:Drivers/STM32Cube_FW_F1_V1.4.0/STM32F1xx_HAL_Driver/Src/stm32f1xx_hal_pwr.c ****    *** Sleep mode ***
 251:Drivers/STM32Cube_FW_F1_V1.4.0/STM32F1xx_HAL_Driver/Src/stm32f1xx_hal_pwr.c ****    ==================
 252:Drivers/STM32Cube_FW_F1_V1.4.0/STM32F1xx_HAL_Driver/Src/stm32f1xx_hal_pwr.c ****     [..]
 253:Drivers/STM32Cube_FW_F1_V1.4.0/STM32F1xx_HAL_Driver/Src/stm32f1xx_hal_pwr.c ****       (+) Entry:
 254:Drivers/STM32Cube_FW_F1_V1.4.0/STM32F1xx_HAL_Driver/Src/stm32f1xx_hal_pwr.c ****           The Sleep mode is entered by using the HAL_PWR_EnterSLEEPMode(PWR_MAINREGULATOR_ON, PWR_S
 255:Drivers/STM32Cube_FW_F1_V1.4.0/STM32F1xx_HAL_Driver/Src/stm32f1xx_hal_pwr.c ****               functions with
 256:Drivers/STM32Cube_FW_F1_V1.4.0/STM32F1xx_HAL_Driver/Src/stm32f1xx_hal_pwr.c ****           (++) PWR_SLEEPENTRY_WFI: enter SLEEP mode with WFI instruction
 257:Drivers/STM32Cube_FW_F1_V1.4.0/STM32F1xx_HAL_Driver/Src/stm32f1xx_hal_pwr.c ****           (++) PWR_SLEEPENTRY_WFE: enter SLEEP mode with WFE instruction
 258:Drivers/STM32Cube_FW_F1_V1.4.0/STM32F1xx_HAL_Driver/Src/stm32f1xx_hal_pwr.c ****      
 259:Drivers/STM32Cube_FW_F1_V1.4.0/STM32F1xx_HAL_Driver/Src/stm32f1xx_hal_pwr.c ****       (+) Exit:
 260:Drivers/STM32Cube_FW_F1_V1.4.0/STM32F1xx_HAL_Driver/Src/stm32f1xx_hal_pwr.c ****         (++) WFI entry mode, Any peripheral interrupt acknowledged by the nested vectored interrupt
 261:Drivers/STM32Cube_FW_F1_V1.4.0/STM32F1xx_HAL_Driver/Src/stm32f1xx_hal_pwr.c ****              controller (NVIC) can wake up the device from Sleep mode.
 262:Drivers/STM32Cube_FW_F1_V1.4.0/STM32F1xx_HAL_Driver/Src/stm32f1xx_hal_pwr.c ****         (++) WFE entry mode, Any wakeup event can wake up the device from Sleep mode.
 263:Drivers/STM32Cube_FW_F1_V1.4.0/STM32F1xx_HAL_Driver/Src/stm32f1xx_hal_pwr.c ****            (+++) Any peripheral interrupt w/o NVIC configuration & SEVONPEND bit set in the Cortex 
 264:Drivers/STM32Cube_FW_F1_V1.4.0/STM32F1xx_HAL_Driver/Src/stm32f1xx_hal_pwr.c ****            (+++) Any EXTI Line (Internal or External) configured in Event mode
 265:Drivers/STM32Cube_FW_F1_V1.4.0/STM32F1xx_HAL_Driver/Src/stm32f1xx_hal_pwr.c **** 
 266:Drivers/STM32Cube_FW_F1_V1.4.0/STM32F1xx_HAL_Driver/Src/stm32f1xx_hal_pwr.c ****    *** Stop mode ***
 267:Drivers/STM32Cube_FW_F1_V1.4.0/STM32F1xx_HAL_Driver/Src/stm32f1xx_hal_pwr.c ****    =================
 268:Drivers/STM32Cube_FW_F1_V1.4.0/STM32F1xx_HAL_Driver/Src/stm32f1xx_hal_pwr.c ****     [..]
 269:Drivers/STM32Cube_FW_F1_V1.4.0/STM32F1xx_HAL_Driver/Src/stm32f1xx_hal_pwr.c ****       The Stop mode is based on the Cortex-M3 deepsleep mode combined with peripheral
 270:Drivers/STM32Cube_FW_F1_V1.4.0/STM32F1xx_HAL_Driver/Src/stm32f1xx_hal_pwr.c ****       clock gating. The voltage regulator can be configured either in normal or low-power mode.
 271:Drivers/STM32Cube_FW_F1_V1.4.0/STM32F1xx_HAL_Driver/Src/stm32f1xx_hal_pwr.c ****       In Stop mode, all clocks in the 1.8 V domain are stopped, the PLL, the HSI and the HSE RC 
 272:Drivers/STM32Cube_FW_F1_V1.4.0/STM32F1xx_HAL_Driver/Src/stm32f1xx_hal_pwr.c ****       oscillators are disabled. SRAM and register contents are preserved.
 273:Drivers/STM32Cube_FW_F1_V1.4.0/STM32F1xx_HAL_Driver/Src/stm32f1xx_hal_pwr.c ****       In Stop mode, all I/O pins keep the same state as in Run mode.
 274:Drivers/STM32Cube_FW_F1_V1.4.0/STM32F1xx_HAL_Driver/Src/stm32f1xx_hal_pwr.c **** 
 275:Drivers/STM32Cube_FW_F1_V1.4.0/STM32F1xx_HAL_Driver/Src/stm32f1xx_hal_pwr.c ****       (+) Entry:
 276:Drivers/STM32Cube_FW_F1_V1.4.0/STM32F1xx_HAL_Driver/Src/stm32f1xx_hal_pwr.c ****            The Stop mode is entered using the HAL_PWR_EnterSTOPMode(PWR_REGULATOR_VALUE, PWR_SLEEPE
 277:Drivers/STM32Cube_FW_F1_V1.4.0/STM32F1xx_HAL_Driver/Src/stm32f1xx_hal_pwr.c ****              function with:
 278:Drivers/STM32Cube_FW_F1_V1.4.0/STM32F1xx_HAL_Driver/Src/stm32f1xx_hal_pwr.c ****           (++) PWR_REGULATOR_VALUE= PWR_MAINREGULATOR_ON: Main regulator ON.
 279:Drivers/STM32Cube_FW_F1_V1.4.0/STM32F1xx_HAL_Driver/Src/stm32f1xx_hal_pwr.c ****           (++) PWR_REGULATOR_VALUE= PWR_LOWPOWERREGULATOR_ON: Low Power regulator ON.
 280:Drivers/STM32Cube_FW_F1_V1.4.0/STM32F1xx_HAL_Driver/Src/stm32f1xx_hal_pwr.c ****           (++) PWR_SLEEPENTRY_WFx= PWR_SLEEPENTRY_WFI: enter STOP mode with WFI instruction
ARM GAS  /tmp/ccJA6ppf.s 			page 18


 281:Drivers/STM32Cube_FW_F1_V1.4.0/STM32F1xx_HAL_Driver/Src/stm32f1xx_hal_pwr.c ****           (++) PWR_SLEEPENTRY_WFx= PWR_SLEEPENTRY_WFE: enter STOP mode with WFE instruction
 282:Drivers/STM32Cube_FW_F1_V1.4.0/STM32F1xx_HAL_Driver/Src/stm32f1xx_hal_pwr.c ****       (+) Exit:
 283:Drivers/STM32Cube_FW_F1_V1.4.0/STM32F1xx_HAL_Driver/Src/stm32f1xx_hal_pwr.c ****           (++) WFI entry mode, Any EXTI Line (Internal or External) configured in Interrupt mode wi
 284:Drivers/STM32Cube_FW_F1_V1.4.0/STM32F1xx_HAL_Driver/Src/stm32f1xx_hal_pwr.c ****           (++) WFE entry mode, Any EXTI Line (Internal or External) configured in Event mode.
 285:Drivers/STM32Cube_FW_F1_V1.4.0/STM32F1xx_HAL_Driver/Src/stm32f1xx_hal_pwr.c **** 
 286:Drivers/STM32Cube_FW_F1_V1.4.0/STM32F1xx_HAL_Driver/Src/stm32f1xx_hal_pwr.c ****    *** Standby mode ***
 287:Drivers/STM32Cube_FW_F1_V1.4.0/STM32F1xx_HAL_Driver/Src/stm32f1xx_hal_pwr.c ****    ====================
 288:Drivers/STM32Cube_FW_F1_V1.4.0/STM32F1xx_HAL_Driver/Src/stm32f1xx_hal_pwr.c ****      [..]
 289:Drivers/STM32Cube_FW_F1_V1.4.0/STM32F1xx_HAL_Driver/Src/stm32f1xx_hal_pwr.c ****       The Standby mode allows to achieve the lowest power consumption. It is based on the
 290:Drivers/STM32Cube_FW_F1_V1.4.0/STM32F1xx_HAL_Driver/Src/stm32f1xx_hal_pwr.c ****       Cortex-M3 deepsleep mode, with the voltage regulator disabled. The 1.8 V domain is 
 291:Drivers/STM32Cube_FW_F1_V1.4.0/STM32F1xx_HAL_Driver/Src/stm32f1xx_hal_pwr.c ****       consequently powered off. The PLL, the HSI oscillator and the HSE oscillator are also 
 292:Drivers/STM32Cube_FW_F1_V1.4.0/STM32F1xx_HAL_Driver/Src/stm32f1xx_hal_pwr.c ****       switched off. SRAM and register contents are lost except for registers in the Backup domain 
 293:Drivers/STM32Cube_FW_F1_V1.4.0/STM32F1xx_HAL_Driver/Src/stm32f1xx_hal_pwr.c ****       and Standby circuitry
 294:Drivers/STM32Cube_FW_F1_V1.4.0/STM32F1xx_HAL_Driver/Src/stm32f1xx_hal_pwr.c ****       
 295:Drivers/STM32Cube_FW_F1_V1.4.0/STM32F1xx_HAL_Driver/Src/stm32f1xx_hal_pwr.c ****       (+) Entry:
 296:Drivers/STM32Cube_FW_F1_V1.4.0/STM32F1xx_HAL_Driver/Src/stm32f1xx_hal_pwr.c ****         (++) The Standby mode is entered using the HAL_PWR_EnterSTANDBYMode() function.
 297:Drivers/STM32Cube_FW_F1_V1.4.0/STM32F1xx_HAL_Driver/Src/stm32f1xx_hal_pwr.c ****       (+) Exit:
 298:Drivers/STM32Cube_FW_F1_V1.4.0/STM32F1xx_HAL_Driver/Src/stm32f1xx_hal_pwr.c ****         (++) WKUP pin rising edge, RTC alarm event rising edge, external Reset in 
 299:Drivers/STM32Cube_FW_F1_V1.4.0/STM32F1xx_HAL_Driver/Src/stm32f1xx_hal_pwr.c ****              NRSTpin, IWDG Reset
 300:Drivers/STM32Cube_FW_F1_V1.4.0/STM32F1xx_HAL_Driver/Src/stm32f1xx_hal_pwr.c **** 
 301:Drivers/STM32Cube_FW_F1_V1.4.0/STM32F1xx_HAL_Driver/Src/stm32f1xx_hal_pwr.c ****    *** Auto-wakeup (AWU) from low-power mode ***
 302:Drivers/STM32Cube_FW_F1_V1.4.0/STM32F1xx_HAL_Driver/Src/stm32f1xx_hal_pwr.c ****        =============================================
 303:Drivers/STM32Cube_FW_F1_V1.4.0/STM32F1xx_HAL_Driver/Src/stm32f1xx_hal_pwr.c ****        [..]
 304:Drivers/STM32Cube_FW_F1_V1.4.0/STM32F1xx_HAL_Driver/Src/stm32f1xx_hal_pwr.c ****         
 305:Drivers/STM32Cube_FW_F1_V1.4.0/STM32F1xx_HAL_Driver/Src/stm32f1xx_hal_pwr.c ****        (+) The MCU can be woken up from low-power mode by an RTC Alarm event, 
 306:Drivers/STM32Cube_FW_F1_V1.4.0/STM32F1xx_HAL_Driver/Src/stm32f1xx_hal_pwr.c ****            without depending on an external interrupt (Auto-wakeup mode).
 307:Drivers/STM32Cube_FW_F1_V1.4.0/STM32F1xx_HAL_Driver/Src/stm32f1xx_hal_pwr.c ****    
 308:Drivers/STM32Cube_FW_F1_V1.4.0/STM32F1xx_HAL_Driver/Src/stm32f1xx_hal_pwr.c ****        (+) RTC auto-wakeup (AWU) from the Stop and Standby modes
 309:Drivers/STM32Cube_FW_F1_V1.4.0/STM32F1xx_HAL_Driver/Src/stm32f1xx_hal_pwr.c **** 
 310:Drivers/STM32Cube_FW_F1_V1.4.0/STM32F1xx_HAL_Driver/Src/stm32f1xx_hal_pwr.c ****            (++) To wake up from the Stop mode with an RTC alarm event, it is necessary to 
 311:Drivers/STM32Cube_FW_F1_V1.4.0/STM32F1xx_HAL_Driver/Src/stm32f1xx_hal_pwr.c ****                 configure the RTC to generate the RTC alarm using the HAL_RTC_SetAlarm_IT() functio
 312:Drivers/STM32Cube_FW_F1_V1.4.0/STM32F1xx_HAL_Driver/Src/stm32f1xx_hal_pwr.c **** 
 313:Drivers/STM32Cube_FW_F1_V1.4.0/STM32F1xx_HAL_Driver/Src/stm32f1xx_hal_pwr.c ****    *** PWR Workarounds linked to Silicon Limitation ***
 314:Drivers/STM32Cube_FW_F1_V1.4.0/STM32F1xx_HAL_Driver/Src/stm32f1xx_hal_pwr.c ****        ====================================================
 315:Drivers/STM32Cube_FW_F1_V1.4.0/STM32F1xx_HAL_Driver/Src/stm32f1xx_hal_pwr.c ****        [..]
 316:Drivers/STM32Cube_FW_F1_V1.4.0/STM32F1xx_HAL_Driver/Src/stm32f1xx_hal_pwr.c ****        Below the list of all silicon limitations known on STM32F1xx prouct.
 317:Drivers/STM32Cube_FW_F1_V1.4.0/STM32F1xx_HAL_Driver/Src/stm32f1xx_hal_pwr.c **** 
 318:Drivers/STM32Cube_FW_F1_V1.4.0/STM32F1xx_HAL_Driver/Src/stm32f1xx_hal_pwr.c ****        (#)Workarounds Implemented inside PWR HAL Driver
 319:Drivers/STM32Cube_FW_F1_V1.4.0/STM32F1xx_HAL_Driver/Src/stm32f1xx_hal_pwr.c ****           (##)Debugging Stop mode with WFE entry - overloaded the WFE by an internal function    
 320:Drivers/STM32Cube_FW_F1_V1.4.0/STM32F1xx_HAL_Driver/Src/stm32f1xx_hal_pwr.c ****         
 321:Drivers/STM32Cube_FW_F1_V1.4.0/STM32F1xx_HAL_Driver/Src/stm32f1xx_hal_pwr.c **** @endverbatim
 322:Drivers/STM32Cube_FW_F1_V1.4.0/STM32F1xx_HAL_Driver/Src/stm32f1xx_hal_pwr.c ****   * @{
 323:Drivers/STM32Cube_FW_F1_V1.4.0/STM32F1xx_HAL_Driver/Src/stm32f1xx_hal_pwr.c ****   */
 324:Drivers/STM32Cube_FW_F1_V1.4.0/STM32F1xx_HAL_Driver/Src/stm32f1xx_hal_pwr.c **** 
 325:Drivers/STM32Cube_FW_F1_V1.4.0/STM32F1xx_HAL_Driver/Src/stm32f1xx_hal_pwr.c **** /**
 326:Drivers/STM32Cube_FW_F1_V1.4.0/STM32F1xx_HAL_Driver/Src/stm32f1xx_hal_pwr.c ****   * @brief  Configures the voltage threshold detected by the Power Voltage Detector(PVD).
 327:Drivers/STM32Cube_FW_F1_V1.4.0/STM32F1xx_HAL_Driver/Src/stm32f1xx_hal_pwr.c ****   * @param  sConfigPVD: pointer to an PWR_PVDTypeDef structure that contains the configuration
 328:Drivers/STM32Cube_FW_F1_V1.4.0/STM32F1xx_HAL_Driver/Src/stm32f1xx_hal_pwr.c ****   *         information for the PVD.
 329:Drivers/STM32Cube_FW_F1_V1.4.0/STM32F1xx_HAL_Driver/Src/stm32f1xx_hal_pwr.c ****   * @note   Refer to the electrical characteristics of your device datasheet for
 330:Drivers/STM32Cube_FW_F1_V1.4.0/STM32F1xx_HAL_Driver/Src/stm32f1xx_hal_pwr.c ****   *         more details about the voltage threshold corresponding to each
 331:Drivers/STM32Cube_FW_F1_V1.4.0/STM32F1xx_HAL_Driver/Src/stm32f1xx_hal_pwr.c ****   *         detection level.
 332:Drivers/STM32Cube_FW_F1_V1.4.0/STM32F1xx_HAL_Driver/Src/stm32f1xx_hal_pwr.c ****   * @retval None
 333:Drivers/STM32Cube_FW_F1_V1.4.0/STM32F1xx_HAL_Driver/Src/stm32f1xx_hal_pwr.c ****   */
 334:Drivers/STM32Cube_FW_F1_V1.4.0/STM32F1xx_HAL_Driver/Src/stm32f1xx_hal_pwr.c **** void HAL_PWR_ConfigPVD(PWR_PVDTypeDef *sConfigPVD)
 335:Drivers/STM32Cube_FW_F1_V1.4.0/STM32F1xx_HAL_Driver/Src/stm32f1xx_hal_pwr.c **** {
 168              		.loc 1 335 0
 169              		.cfi_startproc
ARM GAS  /tmp/ccJA6ppf.s 			page 19


 170              		@ args = 0, pretend = 0, frame = 0
 171              		@ frame_needed = 0, uses_anonymous_args = 0
 172              		@ link register save eliminated.
 173              	.LVL4:
 336:Drivers/STM32Cube_FW_F1_V1.4.0/STM32F1xx_HAL_Driver/Src/stm32f1xx_hal_pwr.c ****   /* Check the parameters */
 337:Drivers/STM32Cube_FW_F1_V1.4.0/STM32F1xx_HAL_Driver/Src/stm32f1xx_hal_pwr.c ****   assert_param(IS_PWR_PVD_LEVEL(sConfigPVD->PVDLevel));
 338:Drivers/STM32Cube_FW_F1_V1.4.0/STM32F1xx_HAL_Driver/Src/stm32f1xx_hal_pwr.c ****   assert_param(IS_PWR_PVD_MODE(sConfigPVD->Mode));
 339:Drivers/STM32Cube_FW_F1_V1.4.0/STM32F1xx_HAL_Driver/Src/stm32f1xx_hal_pwr.c **** 
 340:Drivers/STM32Cube_FW_F1_V1.4.0/STM32F1xx_HAL_Driver/Src/stm32f1xx_hal_pwr.c ****   /* Set PLS[7:5] bits according to PVDLevel value */
 341:Drivers/STM32Cube_FW_F1_V1.4.0/STM32F1xx_HAL_Driver/Src/stm32f1xx_hal_pwr.c ****   MODIFY_REG(PWR->CR, PWR_CR_PLS, sConfigPVD->PVDLevel);
 174              		.loc 1 341 0
 175 0000 1E4A     		ldr	r2, .L12
 176 0002 1368     		ldr	r3, [r2]
 177 0004 23F0E003 		bic	r3, r3, #224
 178 0008 0168     		ldr	r1, [r0]
 179 000a 0B43     		orrs	r3, r3, r1
 180 000c 1360     		str	r3, [r2]
 342:Drivers/STM32Cube_FW_F1_V1.4.0/STM32F1xx_HAL_Driver/Src/stm32f1xx_hal_pwr.c ****   
 343:Drivers/STM32Cube_FW_F1_V1.4.0/STM32F1xx_HAL_Driver/Src/stm32f1xx_hal_pwr.c ****   /* Clear any previous config. Keep it clear if no event or IT mode is selected */
 344:Drivers/STM32Cube_FW_F1_V1.4.0/STM32F1xx_HAL_Driver/Src/stm32f1xx_hal_pwr.c ****   __HAL_PWR_PVD_EXTI_DISABLE_EVENT();
 181              		.loc 1 344 0
 182 000e 1C4B     		ldr	r3, .L12+4
 183 0010 5A68     		ldr	r2, [r3, #4]
 184 0012 22F48032 		bic	r2, r2, #65536
 185 0016 5A60     		str	r2, [r3, #4]
 345:Drivers/STM32Cube_FW_F1_V1.4.0/STM32F1xx_HAL_Driver/Src/stm32f1xx_hal_pwr.c ****   __HAL_PWR_PVD_EXTI_DISABLE_IT();
 186              		.loc 1 345 0
 187 0018 1A68     		ldr	r2, [r3]
 188 001a 22F48032 		bic	r2, r2, #65536
 189 001e 1A60     		str	r2, [r3]
 346:Drivers/STM32Cube_FW_F1_V1.4.0/STM32F1xx_HAL_Driver/Src/stm32f1xx_hal_pwr.c ****   __HAL_PWR_PVD_EXTI_DISABLE_FALLING_EDGE(); 
 190              		.loc 1 346 0
 191 0020 DA68     		ldr	r2, [r3, #12]
 192 0022 22F48032 		bic	r2, r2, #65536
 193 0026 DA60     		str	r2, [r3, #12]
 347:Drivers/STM32Cube_FW_F1_V1.4.0/STM32F1xx_HAL_Driver/Src/stm32f1xx_hal_pwr.c ****   __HAL_PWR_PVD_EXTI_DISABLE_RISING_EDGE();
 194              		.loc 1 347 0
 195 0028 9A68     		ldr	r2, [r3, #8]
 196 002a 22F48032 		bic	r2, r2, #65536
 197 002e 9A60     		str	r2, [r3, #8]
 348:Drivers/STM32Cube_FW_F1_V1.4.0/STM32F1xx_HAL_Driver/Src/stm32f1xx_hal_pwr.c **** 
 349:Drivers/STM32Cube_FW_F1_V1.4.0/STM32F1xx_HAL_Driver/Src/stm32f1xx_hal_pwr.c ****   /* Configure interrupt mode */
 350:Drivers/STM32Cube_FW_F1_V1.4.0/STM32F1xx_HAL_Driver/Src/stm32f1xx_hal_pwr.c ****   if((sConfigPVD->Mode & PVD_MODE_IT) == PVD_MODE_IT)
 198              		.loc 1 350 0
 199 0030 4368     		ldr	r3, [r0, #4]
 200 0032 13F4803F 		tst	r3, #65536
 201 0036 04D0     		beq	.L8
 351:Drivers/STM32Cube_FW_F1_V1.4.0/STM32F1xx_HAL_Driver/Src/stm32f1xx_hal_pwr.c ****   {
 352:Drivers/STM32Cube_FW_F1_V1.4.0/STM32F1xx_HAL_Driver/Src/stm32f1xx_hal_pwr.c ****     __HAL_PWR_PVD_EXTI_ENABLE_IT();
 202              		.loc 1 352 0
 203 0038 114A     		ldr	r2, .L12+4
 204 003a 1368     		ldr	r3, [r2]
 205 003c 43F48033 		orr	r3, r3, #65536
 206 0040 1360     		str	r3, [r2]
 207              	.L8:
 353:Drivers/STM32Cube_FW_F1_V1.4.0/STM32F1xx_HAL_Driver/Src/stm32f1xx_hal_pwr.c ****   }
 354:Drivers/STM32Cube_FW_F1_V1.4.0/STM32F1xx_HAL_Driver/Src/stm32f1xx_hal_pwr.c ****   
ARM GAS  /tmp/ccJA6ppf.s 			page 20


 355:Drivers/STM32Cube_FW_F1_V1.4.0/STM32F1xx_HAL_Driver/Src/stm32f1xx_hal_pwr.c ****   /* Configure event mode */
 356:Drivers/STM32Cube_FW_F1_V1.4.0/STM32F1xx_HAL_Driver/Src/stm32f1xx_hal_pwr.c ****   if((sConfigPVD->Mode & PVD_MODE_EVT) == PVD_MODE_EVT)
 208              		.loc 1 356 0
 209 0042 4368     		ldr	r3, [r0, #4]
 210 0044 13F4003F 		tst	r3, #131072
 211 0048 04D0     		beq	.L9
 357:Drivers/STM32Cube_FW_F1_V1.4.0/STM32F1xx_HAL_Driver/Src/stm32f1xx_hal_pwr.c ****   {
 358:Drivers/STM32Cube_FW_F1_V1.4.0/STM32F1xx_HAL_Driver/Src/stm32f1xx_hal_pwr.c ****     __HAL_PWR_PVD_EXTI_ENABLE_EVENT();
 212              		.loc 1 358 0
 213 004a 0D4A     		ldr	r2, .L12+4
 214 004c 5368     		ldr	r3, [r2, #4]
 215 004e 43F48033 		orr	r3, r3, #65536
 216 0052 5360     		str	r3, [r2, #4]
 217              	.L9:
 359:Drivers/STM32Cube_FW_F1_V1.4.0/STM32F1xx_HAL_Driver/Src/stm32f1xx_hal_pwr.c ****   }
 360:Drivers/STM32Cube_FW_F1_V1.4.0/STM32F1xx_HAL_Driver/Src/stm32f1xx_hal_pwr.c ****   
 361:Drivers/STM32Cube_FW_F1_V1.4.0/STM32F1xx_HAL_Driver/Src/stm32f1xx_hal_pwr.c ****   /* Configure the edge */
 362:Drivers/STM32Cube_FW_F1_V1.4.0/STM32F1xx_HAL_Driver/Src/stm32f1xx_hal_pwr.c ****   if((sConfigPVD->Mode & PVD_RISING_EDGE) == PVD_RISING_EDGE)
 218              		.loc 1 362 0
 219 0054 4368     		ldr	r3, [r0, #4]
 220 0056 13F0010F 		tst	r3, #1
 221 005a 04D0     		beq	.L10
 363:Drivers/STM32Cube_FW_F1_V1.4.0/STM32F1xx_HAL_Driver/Src/stm32f1xx_hal_pwr.c ****   {
 364:Drivers/STM32Cube_FW_F1_V1.4.0/STM32F1xx_HAL_Driver/Src/stm32f1xx_hal_pwr.c ****     __HAL_PWR_PVD_EXTI_ENABLE_RISING_EDGE();
 222              		.loc 1 364 0
 223 005c 084A     		ldr	r2, .L12+4
 224 005e 9368     		ldr	r3, [r2, #8]
 225 0060 43F48033 		orr	r3, r3, #65536
 226 0064 9360     		str	r3, [r2, #8]
 227              	.L10:
 365:Drivers/STM32Cube_FW_F1_V1.4.0/STM32F1xx_HAL_Driver/Src/stm32f1xx_hal_pwr.c ****   }
 366:Drivers/STM32Cube_FW_F1_V1.4.0/STM32F1xx_HAL_Driver/Src/stm32f1xx_hal_pwr.c ****   
 367:Drivers/STM32Cube_FW_F1_V1.4.0/STM32F1xx_HAL_Driver/Src/stm32f1xx_hal_pwr.c ****   if((sConfigPVD->Mode & PVD_FALLING_EDGE) == PVD_FALLING_EDGE)
 228              		.loc 1 367 0
 229 0066 4368     		ldr	r3, [r0, #4]
 230 0068 13F0020F 		tst	r3, #2
 231 006c 04D0     		beq	.L7
 368:Drivers/STM32Cube_FW_F1_V1.4.0/STM32F1xx_HAL_Driver/Src/stm32f1xx_hal_pwr.c ****   {
 369:Drivers/STM32Cube_FW_F1_V1.4.0/STM32F1xx_HAL_Driver/Src/stm32f1xx_hal_pwr.c ****     __HAL_PWR_PVD_EXTI_ENABLE_FALLING_EDGE();
 232              		.loc 1 369 0
 233 006e 044A     		ldr	r2, .L12+4
 234 0070 D368     		ldr	r3, [r2, #12]
 235 0072 43F48033 		orr	r3, r3, #65536
 236 0076 D360     		str	r3, [r2, #12]
 237              	.L7:
 238 0078 7047     		bx	lr
 239              	.L13:
 240 007a 00BF     		.align	2
 241              	.L12:
 242 007c 00700040 		.word	1073770496
 243 0080 00040140 		.word	1073808384
 244              		.cfi_endproc
 245              	.LFE68:
 247              		.section	.text.HAL_PWR_EnablePVD,"ax",%progbits
 248              		.align	1
 249              		.global	HAL_PWR_EnablePVD
 250              		.syntax unified
ARM GAS  /tmp/ccJA6ppf.s 			page 21


 251              		.thumb
 252              		.thumb_func
 253              		.fpu softvfp
 255              	HAL_PWR_EnablePVD:
 256              	.LFB69:
 370:Drivers/STM32Cube_FW_F1_V1.4.0/STM32F1xx_HAL_Driver/Src/stm32f1xx_hal_pwr.c ****   }
 371:Drivers/STM32Cube_FW_F1_V1.4.0/STM32F1xx_HAL_Driver/Src/stm32f1xx_hal_pwr.c **** }
 372:Drivers/STM32Cube_FW_F1_V1.4.0/STM32F1xx_HAL_Driver/Src/stm32f1xx_hal_pwr.c **** 
 373:Drivers/STM32Cube_FW_F1_V1.4.0/STM32F1xx_HAL_Driver/Src/stm32f1xx_hal_pwr.c **** /**
 374:Drivers/STM32Cube_FW_F1_V1.4.0/STM32F1xx_HAL_Driver/Src/stm32f1xx_hal_pwr.c ****   * @brief  Enables the Power Voltage Detector(PVD).
 375:Drivers/STM32Cube_FW_F1_V1.4.0/STM32F1xx_HAL_Driver/Src/stm32f1xx_hal_pwr.c ****   * @retval None
 376:Drivers/STM32Cube_FW_F1_V1.4.0/STM32F1xx_HAL_Driver/Src/stm32f1xx_hal_pwr.c ****   */
 377:Drivers/STM32Cube_FW_F1_V1.4.0/STM32F1xx_HAL_Driver/Src/stm32f1xx_hal_pwr.c **** void HAL_PWR_EnablePVD(void)
 378:Drivers/STM32Cube_FW_F1_V1.4.0/STM32F1xx_HAL_Driver/Src/stm32f1xx_hal_pwr.c **** {
 257              		.loc 1 378 0
 258              		.cfi_startproc
 259              		@ args = 0, pretend = 0, frame = 0
 260              		@ frame_needed = 0, uses_anonymous_args = 0
 261              		@ link register save eliminated.
 262              	.LVL5:
 263              	.LBB32:
 264              	.LBB33:
 265              		.loc 2 531 0
 266 0000 1023     		movs	r3, #16
 267              		.syntax unified
 268              	@ 531 "Drivers/STM32Cube_FW_F1_V1.4.0/CMSIS/Include/cmsis_gcc.h" 1
 269 0002 93FAA3F3 		rbit r3, r3
 270              	@ 0 "" 2
 271              	.LVL6:
 272              		.thumb
 273              		.syntax unified
 274              	.LBE33:
 275              	.LBE32:
 379:Drivers/STM32Cube_FW_F1_V1.4.0/STM32F1xx_HAL_Driver/Src/stm32f1xx_hal_pwr.c ****   /* Enable the power voltage detector */
 380:Drivers/STM32Cube_FW_F1_V1.4.0/STM32F1xx_HAL_Driver/Src/stm32f1xx_hal_pwr.c ****   *(__IO uint32_t *) CR_PVDE_BB = (uint32_t)ENABLE;
 276              		.loc 1 380 0
 277 0006 B3FA83F3 		clz	r3, r3
 278 000a 9B00     		lsls	r3, r3, #2
 279 000c 03F18443 		add	r3, r3, #1107296256
 280 0010 03F56023 		add	r3, r3, #917504
 281 0014 0122     		movs	r2, #1
 282 0016 1A60     		str	r2, [r3]
 283 0018 7047     		bx	lr
 284              		.cfi_endproc
 285              	.LFE69:
 287              		.section	.text.HAL_PWR_DisablePVD,"ax",%progbits
 288              		.align	1
 289              		.global	HAL_PWR_DisablePVD
 290              		.syntax unified
 291              		.thumb
 292              		.thumb_func
 293              		.fpu softvfp
 295              	HAL_PWR_DisablePVD:
 296              	.LFB70:
 381:Drivers/STM32Cube_FW_F1_V1.4.0/STM32F1xx_HAL_Driver/Src/stm32f1xx_hal_pwr.c **** }
 382:Drivers/STM32Cube_FW_F1_V1.4.0/STM32F1xx_HAL_Driver/Src/stm32f1xx_hal_pwr.c **** 
 383:Drivers/STM32Cube_FW_F1_V1.4.0/STM32F1xx_HAL_Driver/Src/stm32f1xx_hal_pwr.c **** /**
ARM GAS  /tmp/ccJA6ppf.s 			page 22


 384:Drivers/STM32Cube_FW_F1_V1.4.0/STM32F1xx_HAL_Driver/Src/stm32f1xx_hal_pwr.c ****   * @brief  Disables the Power Voltage Detector(PVD).
 385:Drivers/STM32Cube_FW_F1_V1.4.0/STM32F1xx_HAL_Driver/Src/stm32f1xx_hal_pwr.c ****   * @retval None
 386:Drivers/STM32Cube_FW_F1_V1.4.0/STM32F1xx_HAL_Driver/Src/stm32f1xx_hal_pwr.c ****   */
 387:Drivers/STM32Cube_FW_F1_V1.4.0/STM32F1xx_HAL_Driver/Src/stm32f1xx_hal_pwr.c **** void HAL_PWR_DisablePVD(void)
 388:Drivers/STM32Cube_FW_F1_V1.4.0/STM32F1xx_HAL_Driver/Src/stm32f1xx_hal_pwr.c **** {
 297              		.loc 1 388 0
 298              		.cfi_startproc
 299              		@ args = 0, pretend = 0, frame = 0
 300              		@ frame_needed = 0, uses_anonymous_args = 0
 301              		@ link register save eliminated.
 302              	.LVL7:
 303              	.LBB34:
 304              	.LBB35:
 305              		.loc 2 531 0
 306 0000 1023     		movs	r3, #16
 307              		.syntax unified
 308              	@ 531 "Drivers/STM32Cube_FW_F1_V1.4.0/CMSIS/Include/cmsis_gcc.h" 1
 309 0002 93FAA3F3 		rbit r3, r3
 310              	@ 0 "" 2
 311              	.LVL8:
 312              		.thumb
 313              		.syntax unified
 314              	.LBE35:
 315              	.LBE34:
 389:Drivers/STM32Cube_FW_F1_V1.4.0/STM32F1xx_HAL_Driver/Src/stm32f1xx_hal_pwr.c ****   /* Disable the power voltage detector */
 390:Drivers/STM32Cube_FW_F1_V1.4.0/STM32F1xx_HAL_Driver/Src/stm32f1xx_hal_pwr.c ****   *(__IO uint32_t *) CR_PVDE_BB = (uint32_t)DISABLE;
 316              		.loc 1 390 0
 317 0006 B3FA83F3 		clz	r3, r3
 318 000a 9B00     		lsls	r3, r3, #2
 319 000c 03F18443 		add	r3, r3, #1107296256
 320 0010 03F56023 		add	r3, r3, #917504
 321 0014 0022     		movs	r2, #0
 322 0016 1A60     		str	r2, [r3]
 323 0018 7047     		bx	lr
 324              		.cfi_endproc
 325              	.LFE70:
 327              		.section	.text.HAL_PWR_EnableWakeUpPin,"ax",%progbits
 328              		.align	1
 329              		.global	HAL_PWR_EnableWakeUpPin
 330              		.syntax unified
 331              		.thumb
 332              		.thumb_func
 333              		.fpu softvfp
 335              	HAL_PWR_EnableWakeUpPin:
 336              	.LFB71:
 391:Drivers/STM32Cube_FW_F1_V1.4.0/STM32F1xx_HAL_Driver/Src/stm32f1xx_hal_pwr.c **** }
 392:Drivers/STM32Cube_FW_F1_V1.4.0/STM32F1xx_HAL_Driver/Src/stm32f1xx_hal_pwr.c **** 
 393:Drivers/STM32Cube_FW_F1_V1.4.0/STM32F1xx_HAL_Driver/Src/stm32f1xx_hal_pwr.c **** /**
 394:Drivers/STM32Cube_FW_F1_V1.4.0/STM32F1xx_HAL_Driver/Src/stm32f1xx_hal_pwr.c ****   * @brief Enables the WakeUp PINx functionality.
 395:Drivers/STM32Cube_FW_F1_V1.4.0/STM32F1xx_HAL_Driver/Src/stm32f1xx_hal_pwr.c ****   * @param WakeUpPinx: Specifies the Power Wake-Up pin to enable.
 396:Drivers/STM32Cube_FW_F1_V1.4.0/STM32F1xx_HAL_Driver/Src/stm32f1xx_hal_pwr.c ****   *        This parameter can be one of the following values:
 397:Drivers/STM32Cube_FW_F1_V1.4.0/STM32F1xx_HAL_Driver/Src/stm32f1xx_hal_pwr.c ****   *           @arg PWR_WAKEUP_PIN1
 398:Drivers/STM32Cube_FW_F1_V1.4.0/STM32F1xx_HAL_Driver/Src/stm32f1xx_hal_pwr.c ****   * @retval None
 399:Drivers/STM32Cube_FW_F1_V1.4.0/STM32F1xx_HAL_Driver/Src/stm32f1xx_hal_pwr.c ****   */
 400:Drivers/STM32Cube_FW_F1_V1.4.0/STM32F1xx_HAL_Driver/Src/stm32f1xx_hal_pwr.c **** void HAL_PWR_EnableWakeUpPin(uint32_t WakeUpPinx)
 401:Drivers/STM32Cube_FW_F1_V1.4.0/STM32F1xx_HAL_Driver/Src/stm32f1xx_hal_pwr.c **** {
 337              		.loc 1 401 0
ARM GAS  /tmp/ccJA6ppf.s 			page 23


 338              		.cfi_startproc
 339              		@ args = 0, pretend = 0, frame = 0
 340              		@ frame_needed = 0, uses_anonymous_args = 0
 341              		@ link register save eliminated.
 342              	.LVL9:
 343              	.LBB36:
 344              	.LBB37:
 345              		.loc 2 531 0
 346              		.syntax unified
 347              	@ 531 "Drivers/STM32Cube_FW_F1_V1.4.0/CMSIS/Include/cmsis_gcc.h" 1
 348 0000 90FAA0F0 		rbit r0, r0
 349              	@ 0 "" 2
 350              	.LVL10:
 351              		.thumb
 352              		.syntax unified
 353              	.LBE37:
 354              	.LBE36:
 402:Drivers/STM32Cube_FW_F1_V1.4.0/STM32F1xx_HAL_Driver/Src/stm32f1xx_hal_pwr.c ****   /* Check the parameter */
 403:Drivers/STM32Cube_FW_F1_V1.4.0/STM32F1xx_HAL_Driver/Src/stm32f1xx_hal_pwr.c ****   assert_param(IS_PWR_WAKEUP_PIN(WakeUpPinx));
 404:Drivers/STM32Cube_FW_F1_V1.4.0/STM32F1xx_HAL_Driver/Src/stm32f1xx_hal_pwr.c ****   /* Enable the EWUPx pin */
 405:Drivers/STM32Cube_FW_F1_V1.4.0/STM32F1xx_HAL_Driver/Src/stm32f1xx_hal_pwr.c ****   *(__IO uint32_t *) CSR_EWUP_BB(WakeUpPinx) = (uint32_t)ENABLE;
 355              		.loc 1 405 0
 356 0004 B0FA80F0 		clz	r0, r0
 357 0008 0122     		movs	r2, #1
 358 000a 024B     		ldr	r3, .L17
 359 000c 43F82020 		str	r2, [r3, r0, lsl #2]
 360 0010 7047     		bx	lr
 361              	.L18:
 362 0012 00BF     		.align	2
 363              	.L17:
 364 0014 80000E42 		.word	1108213888
 365              		.cfi_endproc
 366              	.LFE71:
 368              		.section	.text.HAL_PWR_DisableWakeUpPin,"ax",%progbits
 369              		.align	1
 370              		.global	HAL_PWR_DisableWakeUpPin
 371              		.syntax unified
 372              		.thumb
 373              		.thumb_func
 374              		.fpu softvfp
 376              	HAL_PWR_DisableWakeUpPin:
 377              	.LFB72:
 406:Drivers/STM32Cube_FW_F1_V1.4.0/STM32F1xx_HAL_Driver/Src/stm32f1xx_hal_pwr.c **** }
 407:Drivers/STM32Cube_FW_F1_V1.4.0/STM32F1xx_HAL_Driver/Src/stm32f1xx_hal_pwr.c **** 
 408:Drivers/STM32Cube_FW_F1_V1.4.0/STM32F1xx_HAL_Driver/Src/stm32f1xx_hal_pwr.c **** /**
 409:Drivers/STM32Cube_FW_F1_V1.4.0/STM32F1xx_HAL_Driver/Src/stm32f1xx_hal_pwr.c ****   * @brief Disables the WakeUp PINx functionality.
 410:Drivers/STM32Cube_FW_F1_V1.4.0/STM32F1xx_HAL_Driver/Src/stm32f1xx_hal_pwr.c ****   * @param WakeUpPinx: Specifies the Power Wake-Up pin to disable.
 411:Drivers/STM32Cube_FW_F1_V1.4.0/STM32F1xx_HAL_Driver/Src/stm32f1xx_hal_pwr.c ****   *        This parameter can be one of the following values:
 412:Drivers/STM32Cube_FW_F1_V1.4.0/STM32F1xx_HAL_Driver/Src/stm32f1xx_hal_pwr.c ****   *           @arg PWR_WAKEUP_PIN1
 413:Drivers/STM32Cube_FW_F1_V1.4.0/STM32F1xx_HAL_Driver/Src/stm32f1xx_hal_pwr.c ****   * @retval None
 414:Drivers/STM32Cube_FW_F1_V1.4.0/STM32F1xx_HAL_Driver/Src/stm32f1xx_hal_pwr.c ****   */
 415:Drivers/STM32Cube_FW_F1_V1.4.0/STM32F1xx_HAL_Driver/Src/stm32f1xx_hal_pwr.c **** void HAL_PWR_DisableWakeUpPin(uint32_t WakeUpPinx)
 416:Drivers/STM32Cube_FW_F1_V1.4.0/STM32F1xx_HAL_Driver/Src/stm32f1xx_hal_pwr.c **** {
 378              		.loc 1 416 0
 379              		.cfi_startproc
 380              		@ args = 0, pretend = 0, frame = 0
 381              		@ frame_needed = 0, uses_anonymous_args = 0
ARM GAS  /tmp/ccJA6ppf.s 			page 24


 382              		@ link register save eliminated.
 383              	.LVL11:
 384              	.LBB38:
 385              	.LBB39:
 386              		.loc 2 531 0
 387              		.syntax unified
 388              	@ 531 "Drivers/STM32Cube_FW_F1_V1.4.0/CMSIS/Include/cmsis_gcc.h" 1
 389 0000 90FAA0F0 		rbit r0, r0
 390              	@ 0 "" 2
 391              	.LVL12:
 392              		.thumb
 393              		.syntax unified
 394              	.LBE39:
 395              	.LBE38:
 417:Drivers/STM32Cube_FW_F1_V1.4.0/STM32F1xx_HAL_Driver/Src/stm32f1xx_hal_pwr.c ****   /* Check the parameter */
 418:Drivers/STM32Cube_FW_F1_V1.4.0/STM32F1xx_HAL_Driver/Src/stm32f1xx_hal_pwr.c ****   assert_param(IS_PWR_WAKEUP_PIN(WakeUpPinx));
 419:Drivers/STM32Cube_FW_F1_V1.4.0/STM32F1xx_HAL_Driver/Src/stm32f1xx_hal_pwr.c ****   /* Disable the EWUPx pin */
 420:Drivers/STM32Cube_FW_F1_V1.4.0/STM32F1xx_HAL_Driver/Src/stm32f1xx_hal_pwr.c ****   *(__IO uint32_t *) CSR_EWUP_BB(WakeUpPinx) = (uint32_t)DISABLE;
 396              		.loc 1 420 0
 397 0004 B0FA80F0 		clz	r0, r0
 398 0008 0022     		movs	r2, #0
 399 000a 024B     		ldr	r3, .L20
 400 000c 43F82020 		str	r2, [r3, r0, lsl #2]
 401 0010 7047     		bx	lr
 402              	.L21:
 403 0012 00BF     		.align	2
 404              	.L20:
 405 0014 80000E42 		.word	1108213888
 406              		.cfi_endproc
 407              	.LFE72:
 409              		.section	.text.HAL_PWR_EnterSLEEPMode,"ax",%progbits
 410              		.align	1
 411              		.global	HAL_PWR_EnterSLEEPMode
 412              		.syntax unified
 413              		.thumb
 414              		.thumb_func
 415              		.fpu softvfp
 417              	HAL_PWR_EnterSLEEPMode:
 418              	.LFB73:
 421:Drivers/STM32Cube_FW_F1_V1.4.0/STM32F1xx_HAL_Driver/Src/stm32f1xx_hal_pwr.c **** }
 422:Drivers/STM32Cube_FW_F1_V1.4.0/STM32F1xx_HAL_Driver/Src/stm32f1xx_hal_pwr.c **** 
 423:Drivers/STM32Cube_FW_F1_V1.4.0/STM32F1xx_HAL_Driver/Src/stm32f1xx_hal_pwr.c **** /**
 424:Drivers/STM32Cube_FW_F1_V1.4.0/STM32F1xx_HAL_Driver/Src/stm32f1xx_hal_pwr.c ****   * @brief Enters Sleep mode.
 425:Drivers/STM32Cube_FW_F1_V1.4.0/STM32F1xx_HAL_Driver/Src/stm32f1xx_hal_pwr.c ****   * @note  In Sleep mode, all I/O pins keep the same state as in Run mode.
 426:Drivers/STM32Cube_FW_F1_V1.4.0/STM32F1xx_HAL_Driver/Src/stm32f1xx_hal_pwr.c ****   * @param Regulator: Regulator state as no effect in SLEEP mode -  allows to support portability f
 427:Drivers/STM32Cube_FW_F1_V1.4.0/STM32F1xx_HAL_Driver/Src/stm32f1xx_hal_pwr.c ****   * @param SLEEPEntry: Specifies if SLEEP mode is entered with WFI or WFE instruction.
 428:Drivers/STM32Cube_FW_F1_V1.4.0/STM32F1xx_HAL_Driver/Src/stm32f1xx_hal_pwr.c ****   *           When WFI entry is used, tick interrupt have to be disabled if not desired as 
 429:Drivers/STM32Cube_FW_F1_V1.4.0/STM32F1xx_HAL_Driver/Src/stm32f1xx_hal_pwr.c ****   *           the interrupt wake up source.
 430:Drivers/STM32Cube_FW_F1_V1.4.0/STM32F1xx_HAL_Driver/Src/stm32f1xx_hal_pwr.c ****   *           This parameter can be one of the following values:
 431:Drivers/STM32Cube_FW_F1_V1.4.0/STM32F1xx_HAL_Driver/Src/stm32f1xx_hal_pwr.c ****   *            @arg PWR_SLEEPENTRY_WFI: enter SLEEP mode with WFI instruction
 432:Drivers/STM32Cube_FW_F1_V1.4.0/STM32F1xx_HAL_Driver/Src/stm32f1xx_hal_pwr.c ****   *            @arg PWR_SLEEPENTRY_WFE: enter SLEEP mode with WFE instruction
 433:Drivers/STM32Cube_FW_F1_V1.4.0/STM32F1xx_HAL_Driver/Src/stm32f1xx_hal_pwr.c ****   * @retval None
 434:Drivers/STM32Cube_FW_F1_V1.4.0/STM32F1xx_HAL_Driver/Src/stm32f1xx_hal_pwr.c ****   */
 435:Drivers/STM32Cube_FW_F1_V1.4.0/STM32F1xx_HAL_Driver/Src/stm32f1xx_hal_pwr.c **** void HAL_PWR_EnterSLEEPMode(uint32_t Regulator, uint8_t SLEEPEntry)
 436:Drivers/STM32Cube_FW_F1_V1.4.0/STM32F1xx_HAL_Driver/Src/stm32f1xx_hal_pwr.c **** {
 419              		.loc 1 436 0
 420              		.cfi_startproc
ARM GAS  /tmp/ccJA6ppf.s 			page 25


 421              		@ args = 0, pretend = 0, frame = 0
 422              		@ frame_needed = 0, uses_anonymous_args = 0
 423              		@ link register save eliminated.
 424              	.LVL13:
 437:Drivers/STM32Cube_FW_F1_V1.4.0/STM32F1xx_HAL_Driver/Src/stm32f1xx_hal_pwr.c ****   /* Check the parameters */
 438:Drivers/STM32Cube_FW_F1_V1.4.0/STM32F1xx_HAL_Driver/Src/stm32f1xx_hal_pwr.c ****   /* No check on Regulator because parameter not used in SLEEP mode */
 439:Drivers/STM32Cube_FW_F1_V1.4.0/STM32F1xx_HAL_Driver/Src/stm32f1xx_hal_pwr.c ****   assert_param(IS_PWR_SLEEP_ENTRY(SLEEPEntry));
 440:Drivers/STM32Cube_FW_F1_V1.4.0/STM32F1xx_HAL_Driver/Src/stm32f1xx_hal_pwr.c **** 
 441:Drivers/STM32Cube_FW_F1_V1.4.0/STM32F1xx_HAL_Driver/Src/stm32f1xx_hal_pwr.c ****   /* Clear SLEEPDEEP bit of Cortex System Control Register */
 442:Drivers/STM32Cube_FW_F1_V1.4.0/STM32F1xx_HAL_Driver/Src/stm32f1xx_hal_pwr.c ****   CLEAR_BIT(SCB->SCR, ((uint32_t)SCB_SCR_SLEEPDEEP_Msk));
 425              		.loc 1 442 0
 426 0000 064A     		ldr	r2, .L26
 427 0002 1369     		ldr	r3, [r2, #16]
 428 0004 23F00403 		bic	r3, r3, #4
 429 0008 1361     		str	r3, [r2, #16]
 443:Drivers/STM32Cube_FW_F1_V1.4.0/STM32F1xx_HAL_Driver/Src/stm32f1xx_hal_pwr.c **** 
 444:Drivers/STM32Cube_FW_F1_V1.4.0/STM32F1xx_HAL_Driver/Src/stm32f1xx_hal_pwr.c ****   /* Select SLEEP mode entry -------------------------------------------------*/
 445:Drivers/STM32Cube_FW_F1_V1.4.0/STM32F1xx_HAL_Driver/Src/stm32f1xx_hal_pwr.c ****   if(SLEEPEntry == PWR_SLEEPENTRY_WFI)
 430              		.loc 1 445 0
 431 000a 0129     		cmp	r1, #1
 432 000c 03D0     		beq	.L25
 433              	.LBB40:
 434              	.LBB41:
 406:Drivers/STM32Cube_FW_F1_V1.4.0/CMSIS/Include/cmsis_gcc.h **** }
 435              		.loc 2 406 0
 436              		.syntax unified
 437              	@ 406 "Drivers/STM32Cube_FW_F1_V1.4.0/CMSIS/Include/cmsis_gcc.h" 1
 438 000e 40BF     		sev
 439              	@ 0 "" 2
 440              		.thumb
 441              		.syntax unified
 442              	.LBE41:
 443              	.LBE40:
 444              	.LBB42:
 445              	.LBB43:
 396:Drivers/STM32Cube_FW_F1_V1.4.0/CMSIS/Include/cmsis_gcc.h **** }
 446              		.loc 2 396 0
 447              		.syntax unified
 448              	@ 396 "Drivers/STM32Cube_FW_F1_V1.4.0/CMSIS/Include/cmsis_gcc.h" 1
 449 0010 20BF     		wfe
 450              	@ 0 "" 2
 451              		.thumb
 452              		.syntax unified
 453              	.LBE43:
 454              	.LBE42:
 455              	.LBB44:
 456              	.LBB45:
 457              		.syntax unified
 458              	@ 396 "Drivers/STM32Cube_FW_F1_V1.4.0/CMSIS/Include/cmsis_gcc.h" 1
 459 0012 20BF     		wfe
 460              	@ 0 "" 2
 461              		.thumb
 462              		.syntax unified
 463 0014 7047     		bx	lr
 464              	.L25:
 465              	.LBE45:
 466              	.LBE44:
ARM GAS  /tmp/ccJA6ppf.s 			page 26


 467              	.LBB46:
 468              	.LBB47:
 385:Drivers/STM32Cube_FW_F1_V1.4.0/CMSIS/Include/cmsis_gcc.h **** }
 469              		.loc 2 385 0
 470              		.syntax unified
 471              	@ 385 "Drivers/STM32Cube_FW_F1_V1.4.0/CMSIS/Include/cmsis_gcc.h" 1
 472 0016 30BF     		wfi
 473              	@ 0 "" 2
 474              		.thumb
 475              		.syntax unified
 476 0018 7047     		bx	lr
 477              	.L27:
 478 001a 00BF     		.align	2
 479              	.L26:
 480 001c 00ED00E0 		.word	-536810240
 481              	.LBE47:
 482              	.LBE46:
 483              		.cfi_endproc
 484              	.LFE73:
 486              		.section	.text.HAL_PWR_EnterSTOPMode,"ax",%progbits
 487              		.align	1
 488              		.global	HAL_PWR_EnterSTOPMode
 489              		.syntax unified
 490              		.thumb
 491              		.thumb_func
 492              		.fpu softvfp
 494              	HAL_PWR_EnterSTOPMode:
 495              	.LFB74:
 446:Drivers/STM32Cube_FW_F1_V1.4.0/STM32F1xx_HAL_Driver/Src/stm32f1xx_hal_pwr.c ****   {
 447:Drivers/STM32Cube_FW_F1_V1.4.0/STM32F1xx_HAL_Driver/Src/stm32f1xx_hal_pwr.c ****     /* Request Wait For Interrupt */
 448:Drivers/STM32Cube_FW_F1_V1.4.0/STM32F1xx_HAL_Driver/Src/stm32f1xx_hal_pwr.c ****     __WFI();
 449:Drivers/STM32Cube_FW_F1_V1.4.0/STM32F1xx_HAL_Driver/Src/stm32f1xx_hal_pwr.c ****   }
 450:Drivers/STM32Cube_FW_F1_V1.4.0/STM32F1xx_HAL_Driver/Src/stm32f1xx_hal_pwr.c ****   else
 451:Drivers/STM32Cube_FW_F1_V1.4.0/STM32F1xx_HAL_Driver/Src/stm32f1xx_hal_pwr.c ****   {
 452:Drivers/STM32Cube_FW_F1_V1.4.0/STM32F1xx_HAL_Driver/Src/stm32f1xx_hal_pwr.c ****     /* Request Wait For Event */
 453:Drivers/STM32Cube_FW_F1_V1.4.0/STM32F1xx_HAL_Driver/Src/stm32f1xx_hal_pwr.c ****     __SEV();
 454:Drivers/STM32Cube_FW_F1_V1.4.0/STM32F1xx_HAL_Driver/Src/stm32f1xx_hal_pwr.c ****     __WFE();
 455:Drivers/STM32Cube_FW_F1_V1.4.0/STM32F1xx_HAL_Driver/Src/stm32f1xx_hal_pwr.c ****     __WFE();
 456:Drivers/STM32Cube_FW_F1_V1.4.0/STM32F1xx_HAL_Driver/Src/stm32f1xx_hal_pwr.c ****   }
 457:Drivers/STM32Cube_FW_F1_V1.4.0/STM32F1xx_HAL_Driver/Src/stm32f1xx_hal_pwr.c **** }
 458:Drivers/STM32Cube_FW_F1_V1.4.0/STM32F1xx_HAL_Driver/Src/stm32f1xx_hal_pwr.c **** 
 459:Drivers/STM32Cube_FW_F1_V1.4.0/STM32F1xx_HAL_Driver/Src/stm32f1xx_hal_pwr.c **** /**
 460:Drivers/STM32Cube_FW_F1_V1.4.0/STM32F1xx_HAL_Driver/Src/stm32f1xx_hal_pwr.c ****   * @brief Enters Stop mode. 
 461:Drivers/STM32Cube_FW_F1_V1.4.0/STM32F1xx_HAL_Driver/Src/stm32f1xx_hal_pwr.c ****   * @note  In Stop mode, all I/O pins keep the same state as in Run mode.
 462:Drivers/STM32Cube_FW_F1_V1.4.0/STM32F1xx_HAL_Driver/Src/stm32f1xx_hal_pwr.c ****   * @note  When exiting Stop mode by using an interrupt or a wakeup event,
 463:Drivers/STM32Cube_FW_F1_V1.4.0/STM32F1xx_HAL_Driver/Src/stm32f1xx_hal_pwr.c ****   *        HSI RC oscillator is selected as system clock.
 464:Drivers/STM32Cube_FW_F1_V1.4.0/STM32F1xx_HAL_Driver/Src/stm32f1xx_hal_pwr.c ****   * @note  When the voltage regulator operates in low power mode, an additional
 465:Drivers/STM32Cube_FW_F1_V1.4.0/STM32F1xx_HAL_Driver/Src/stm32f1xx_hal_pwr.c ****   *         startup delay is incurred when waking up from Stop mode. 
 466:Drivers/STM32Cube_FW_F1_V1.4.0/STM32F1xx_HAL_Driver/Src/stm32f1xx_hal_pwr.c ****   *         By keeping the internal regulator ON during Stop mode, the consumption
 467:Drivers/STM32Cube_FW_F1_V1.4.0/STM32F1xx_HAL_Driver/Src/stm32f1xx_hal_pwr.c ****   *         is higher although the startup time is reduced.    
 468:Drivers/STM32Cube_FW_F1_V1.4.0/STM32F1xx_HAL_Driver/Src/stm32f1xx_hal_pwr.c ****   * @param Regulator: Specifies the regulator state in Stop mode.
 469:Drivers/STM32Cube_FW_F1_V1.4.0/STM32F1xx_HAL_Driver/Src/stm32f1xx_hal_pwr.c ****   *          This parameter can be one of the following values:
 470:Drivers/STM32Cube_FW_F1_V1.4.0/STM32F1xx_HAL_Driver/Src/stm32f1xx_hal_pwr.c ****   *            @arg PWR_MAINREGULATOR_ON: Stop mode with regulator ON
 471:Drivers/STM32Cube_FW_F1_V1.4.0/STM32F1xx_HAL_Driver/Src/stm32f1xx_hal_pwr.c ****   *            @arg PWR_LOWPOWERREGULATOR_ON: Stop mode with low power regulator ON
 472:Drivers/STM32Cube_FW_F1_V1.4.0/STM32F1xx_HAL_Driver/Src/stm32f1xx_hal_pwr.c ****   * @param STOPEntry: Specifies if Stop mode in entered with WFI or WFE instruction.
 473:Drivers/STM32Cube_FW_F1_V1.4.0/STM32F1xx_HAL_Driver/Src/stm32f1xx_hal_pwr.c ****   *          This parameter can be one of the following values:
 474:Drivers/STM32Cube_FW_F1_V1.4.0/STM32F1xx_HAL_Driver/Src/stm32f1xx_hal_pwr.c ****   *            @arg PWR_STOPENTRY_WFI: Enter Stop mode with WFI instruction
ARM GAS  /tmp/ccJA6ppf.s 			page 27


 475:Drivers/STM32Cube_FW_F1_V1.4.0/STM32F1xx_HAL_Driver/Src/stm32f1xx_hal_pwr.c ****   *            @arg PWR_STOPENTRY_WFE: Enter Stop mode with WFE instruction   
 476:Drivers/STM32Cube_FW_F1_V1.4.0/STM32F1xx_HAL_Driver/Src/stm32f1xx_hal_pwr.c ****   * @retval None
 477:Drivers/STM32Cube_FW_F1_V1.4.0/STM32F1xx_HAL_Driver/Src/stm32f1xx_hal_pwr.c ****   */
 478:Drivers/STM32Cube_FW_F1_V1.4.0/STM32F1xx_HAL_Driver/Src/stm32f1xx_hal_pwr.c **** void HAL_PWR_EnterSTOPMode(uint32_t Regulator, uint8_t STOPEntry)
 479:Drivers/STM32Cube_FW_F1_V1.4.0/STM32F1xx_HAL_Driver/Src/stm32f1xx_hal_pwr.c **** {
 496              		.loc 1 479 0
 497              		.cfi_startproc
 498              		@ args = 0, pretend = 0, frame = 0
 499              		@ frame_needed = 0, uses_anonymous_args = 0
 500              	.LVL14:
 501 0000 08B5     		push	{r3, lr}
 502              	.LCFI0:
 503              		.cfi_def_cfa_offset 8
 504              		.cfi_offset 3, -8
 505              		.cfi_offset 14, -4
 480:Drivers/STM32Cube_FW_F1_V1.4.0/STM32F1xx_HAL_Driver/Src/stm32f1xx_hal_pwr.c ****   /* Check the parameters */
 481:Drivers/STM32Cube_FW_F1_V1.4.0/STM32F1xx_HAL_Driver/Src/stm32f1xx_hal_pwr.c ****   assert_param(IS_PWR_REGULATOR(Regulator));
 482:Drivers/STM32Cube_FW_F1_V1.4.0/STM32F1xx_HAL_Driver/Src/stm32f1xx_hal_pwr.c ****   assert_param(IS_PWR_STOP_ENTRY(STOPEntry));
 483:Drivers/STM32Cube_FW_F1_V1.4.0/STM32F1xx_HAL_Driver/Src/stm32f1xx_hal_pwr.c **** 
 484:Drivers/STM32Cube_FW_F1_V1.4.0/STM32F1xx_HAL_Driver/Src/stm32f1xx_hal_pwr.c ****   /* Clear PDDS bit in PWR register to specify entering in STOP mode when CPU enter in Deepsleep */
 485:Drivers/STM32Cube_FW_F1_V1.4.0/STM32F1xx_HAL_Driver/Src/stm32f1xx_hal_pwr.c ****   CLEAR_BIT(PWR->CR,  PWR_CR_PDDS);
 506              		.loc 1 485 0
 507 0002 0F4A     		ldr	r2, .L33
 508 0004 1368     		ldr	r3, [r2]
 509 0006 23F00203 		bic	r3, r3, #2
 510 000a 1360     		str	r3, [r2]
 486:Drivers/STM32Cube_FW_F1_V1.4.0/STM32F1xx_HAL_Driver/Src/stm32f1xx_hal_pwr.c **** 
 487:Drivers/STM32Cube_FW_F1_V1.4.0/STM32F1xx_HAL_Driver/Src/stm32f1xx_hal_pwr.c ****   /* Select the voltage regulator mode by setting LPDS bit in PWR register according to Regulator p
 488:Drivers/STM32Cube_FW_F1_V1.4.0/STM32F1xx_HAL_Driver/Src/stm32f1xx_hal_pwr.c ****   MODIFY_REG(PWR->CR, PWR_CR_LPDS, Regulator);
 511              		.loc 1 488 0
 512 000c 1368     		ldr	r3, [r2]
 513 000e 23F00103 		bic	r3, r3, #1
 514 0012 1843     		orrs	r0, r0, r3
 515              	.LVL15:
 516 0014 1060     		str	r0, [r2]
 489:Drivers/STM32Cube_FW_F1_V1.4.0/STM32F1xx_HAL_Driver/Src/stm32f1xx_hal_pwr.c **** 
 490:Drivers/STM32Cube_FW_F1_V1.4.0/STM32F1xx_HAL_Driver/Src/stm32f1xx_hal_pwr.c ****   /* Set SLEEPDEEP bit of Cortex System Control Register */
 491:Drivers/STM32Cube_FW_F1_V1.4.0/STM32F1xx_HAL_Driver/Src/stm32f1xx_hal_pwr.c ****   SET_BIT(SCB->SCR, ((uint32_t)SCB_SCR_SLEEPDEEP_Msk));
 517              		.loc 1 491 0
 518 0016 0B4A     		ldr	r2, .L33+4
 519 0018 1369     		ldr	r3, [r2, #16]
 520 001a 43F00403 		orr	r3, r3, #4
 521 001e 1361     		str	r3, [r2, #16]
 492:Drivers/STM32Cube_FW_F1_V1.4.0/STM32F1xx_HAL_Driver/Src/stm32f1xx_hal_pwr.c **** 
 493:Drivers/STM32Cube_FW_F1_V1.4.0/STM32F1xx_HAL_Driver/Src/stm32f1xx_hal_pwr.c ****   /* Select Stop mode entry --------------------------------------------------*/
 494:Drivers/STM32Cube_FW_F1_V1.4.0/STM32F1xx_HAL_Driver/Src/stm32f1xx_hal_pwr.c ****   if(STOPEntry == PWR_STOPENTRY_WFI)
 522              		.loc 1 494 0
 523 0020 0129     		cmp	r1, #1
 524 0022 0AD0     		beq	.L32
 525              	.LBB48:
 526              	.LBB49:
 406:Drivers/STM32Cube_FW_F1_V1.4.0/CMSIS/Include/cmsis_gcc.h **** }
 527              		.loc 2 406 0
 528              		.syntax unified
 529              	@ 406 "Drivers/STM32Cube_FW_F1_V1.4.0/CMSIS/Include/cmsis_gcc.h" 1
 530 0024 40BF     		sev
 531              	@ 0 "" 2
ARM GAS  /tmp/ccJA6ppf.s 			page 28


 532              		.thumb
 533              		.syntax unified
 534              	.LBE49:
 535              	.LBE48:
 495:Drivers/STM32Cube_FW_F1_V1.4.0/STM32F1xx_HAL_Driver/Src/stm32f1xx_hal_pwr.c ****   {
 496:Drivers/STM32Cube_FW_F1_V1.4.0/STM32F1xx_HAL_Driver/Src/stm32f1xx_hal_pwr.c ****     /* Request Wait For Interrupt */
 497:Drivers/STM32Cube_FW_F1_V1.4.0/STM32F1xx_HAL_Driver/Src/stm32f1xx_hal_pwr.c ****     __WFI();
 498:Drivers/STM32Cube_FW_F1_V1.4.0/STM32F1xx_HAL_Driver/Src/stm32f1xx_hal_pwr.c ****   }
 499:Drivers/STM32Cube_FW_F1_V1.4.0/STM32F1xx_HAL_Driver/Src/stm32f1xx_hal_pwr.c ****   else
 500:Drivers/STM32Cube_FW_F1_V1.4.0/STM32F1xx_HAL_Driver/Src/stm32f1xx_hal_pwr.c ****   {
 501:Drivers/STM32Cube_FW_F1_V1.4.0/STM32F1xx_HAL_Driver/Src/stm32f1xx_hal_pwr.c ****     /* Request Wait For Event */
 502:Drivers/STM32Cube_FW_F1_V1.4.0/STM32F1xx_HAL_Driver/Src/stm32f1xx_hal_pwr.c ****     __SEV();
 503:Drivers/STM32Cube_FW_F1_V1.4.0/STM32F1xx_HAL_Driver/Src/stm32f1xx_hal_pwr.c ****     PWR_OverloadWfe(); /* WFE redefine locally */
 536              		.loc 1 503 0
 537 0026 FFF7FEFF 		bl	PWR_OverloadWfe
 538              	.LVL16:
 504:Drivers/STM32Cube_FW_F1_V1.4.0/STM32F1xx_HAL_Driver/Src/stm32f1xx_hal_pwr.c ****     PWR_OverloadWfe(); /* WFE redefine locally */
 539              		.loc 1 504 0
 540 002a FFF7FEFF 		bl	PWR_OverloadWfe
 541              	.LVL17:
 542              	.L30:
 505:Drivers/STM32Cube_FW_F1_V1.4.0/STM32F1xx_HAL_Driver/Src/stm32f1xx_hal_pwr.c ****   }
 506:Drivers/STM32Cube_FW_F1_V1.4.0/STM32F1xx_HAL_Driver/Src/stm32f1xx_hal_pwr.c ****   /* Reset SLEEPDEEP bit of Cortex System Control Register */
 507:Drivers/STM32Cube_FW_F1_V1.4.0/STM32F1xx_HAL_Driver/Src/stm32f1xx_hal_pwr.c ****   CLEAR_BIT(SCB->SCR, ((uint32_t)SCB_SCR_SLEEPDEEP_Msk));
 543              		.loc 1 507 0
 544 002e 054A     		ldr	r2, .L33+4
 545 0030 1369     		ldr	r3, [r2, #16]
 546 0032 23F00403 		bic	r3, r3, #4
 547 0036 1361     		str	r3, [r2, #16]
 548 0038 08BD     		pop	{r3, pc}
 549              	.LVL18:
 550              	.L32:
 551              	.LBB50:
 552              	.LBB51:
 385:Drivers/STM32Cube_FW_F1_V1.4.0/CMSIS/Include/cmsis_gcc.h **** }
 553              		.loc 2 385 0
 554              		.syntax unified
 555              	@ 385 "Drivers/STM32Cube_FW_F1_V1.4.0/CMSIS/Include/cmsis_gcc.h" 1
 556 003a 30BF     		wfi
 557              	@ 0 "" 2
 558              		.thumb
 559              		.syntax unified
 560 003c F7E7     		b	.L30
 561              	.L34:
 562 003e 00BF     		.align	2
 563              	.L33:
 564 0040 00700040 		.word	1073770496
 565 0044 00ED00E0 		.word	-536810240
 566              	.LBE51:
 567              	.LBE50:
 568              		.cfi_endproc
 569              	.LFE74:
 571              		.section	.text.HAL_PWR_EnterSTANDBYMode,"ax",%progbits
 572              		.align	1
 573              		.global	HAL_PWR_EnterSTANDBYMode
 574              		.syntax unified
 575              		.thumb
ARM GAS  /tmp/ccJA6ppf.s 			page 29


 576              		.thumb_func
 577              		.fpu softvfp
 579              	HAL_PWR_EnterSTANDBYMode:
 580              	.LFB75:
 508:Drivers/STM32Cube_FW_F1_V1.4.0/STM32F1xx_HAL_Driver/Src/stm32f1xx_hal_pwr.c **** }
 509:Drivers/STM32Cube_FW_F1_V1.4.0/STM32F1xx_HAL_Driver/Src/stm32f1xx_hal_pwr.c **** 
 510:Drivers/STM32Cube_FW_F1_V1.4.0/STM32F1xx_HAL_Driver/Src/stm32f1xx_hal_pwr.c **** /**
 511:Drivers/STM32Cube_FW_F1_V1.4.0/STM32F1xx_HAL_Driver/Src/stm32f1xx_hal_pwr.c ****   * @brief Enters Standby mode.
 512:Drivers/STM32Cube_FW_F1_V1.4.0/STM32F1xx_HAL_Driver/Src/stm32f1xx_hal_pwr.c ****   * @note  In Standby mode, all I/O pins are high impedance except for:
 513:Drivers/STM32Cube_FW_F1_V1.4.0/STM32F1xx_HAL_Driver/Src/stm32f1xx_hal_pwr.c ****   *          - Reset pad (still available) 
 514:Drivers/STM32Cube_FW_F1_V1.4.0/STM32F1xx_HAL_Driver/Src/stm32f1xx_hal_pwr.c ****   *          - TAMPER pin if configured for tamper or calibration out.
 515:Drivers/STM32Cube_FW_F1_V1.4.0/STM32F1xx_HAL_Driver/Src/stm32f1xx_hal_pwr.c ****   *          - WKUP pin (PA0) if enabled.
 516:Drivers/STM32Cube_FW_F1_V1.4.0/STM32F1xx_HAL_Driver/Src/stm32f1xx_hal_pwr.c ****   * @retval None
 517:Drivers/STM32Cube_FW_F1_V1.4.0/STM32F1xx_HAL_Driver/Src/stm32f1xx_hal_pwr.c ****   */
 518:Drivers/STM32Cube_FW_F1_V1.4.0/STM32F1xx_HAL_Driver/Src/stm32f1xx_hal_pwr.c **** void HAL_PWR_EnterSTANDBYMode(void)
 519:Drivers/STM32Cube_FW_F1_V1.4.0/STM32F1xx_HAL_Driver/Src/stm32f1xx_hal_pwr.c **** {
 581              		.loc 1 519 0
 582              		.cfi_startproc
 583              		@ args = 0, pretend = 0, frame = 0
 584              		@ frame_needed = 0, uses_anonymous_args = 0
 585              		@ link register save eliminated.
 520:Drivers/STM32Cube_FW_F1_V1.4.0/STM32F1xx_HAL_Driver/Src/stm32f1xx_hal_pwr.c ****   /* Select Standby mode */
 521:Drivers/STM32Cube_FW_F1_V1.4.0/STM32F1xx_HAL_Driver/Src/stm32f1xx_hal_pwr.c ****   SET_BIT(PWR->CR, PWR_CR_PDDS);
 586              		.loc 1 521 0
 587 0000 054A     		ldr	r2, .L36
 588 0002 1368     		ldr	r3, [r2]
 589 0004 43F00203 		orr	r3, r3, #2
 590 0008 1360     		str	r3, [r2]
 522:Drivers/STM32Cube_FW_F1_V1.4.0/STM32F1xx_HAL_Driver/Src/stm32f1xx_hal_pwr.c **** 
 523:Drivers/STM32Cube_FW_F1_V1.4.0/STM32F1xx_HAL_Driver/Src/stm32f1xx_hal_pwr.c ****   /* Set SLEEPDEEP bit of Cortex System Control Register */
 524:Drivers/STM32Cube_FW_F1_V1.4.0/STM32F1xx_HAL_Driver/Src/stm32f1xx_hal_pwr.c ****   SET_BIT(SCB->SCR, ((uint32_t)SCB_SCR_SLEEPDEEP_Msk));
 591              		.loc 1 524 0
 592 000a 044A     		ldr	r2, .L36+4
 593 000c 1369     		ldr	r3, [r2, #16]
 594 000e 43F00403 		orr	r3, r3, #4
 595 0012 1361     		str	r3, [r2, #16]
 596              	.LBB52:
 597              	.LBB53:
 385:Drivers/STM32Cube_FW_F1_V1.4.0/CMSIS/Include/cmsis_gcc.h **** }
 598              		.loc 2 385 0
 599              		.syntax unified
 600              	@ 385 "Drivers/STM32Cube_FW_F1_V1.4.0/CMSIS/Include/cmsis_gcc.h" 1
 601 0014 30BF     		wfi
 602              	@ 0 "" 2
 603              		.thumb
 604              		.syntax unified
 605 0016 7047     		bx	lr
 606              	.L37:
 607              		.align	2
 608              	.L36:
 609 0018 00700040 		.word	1073770496
 610 001c 00ED00E0 		.word	-536810240
 611              	.LBE53:
 612              	.LBE52:
 613              		.cfi_endproc
 614              	.LFE75:
 616              		.section	.text.HAL_PWR_EnableSleepOnExit,"ax",%progbits
ARM GAS  /tmp/ccJA6ppf.s 			page 30


 617              		.align	1
 618              		.global	HAL_PWR_EnableSleepOnExit
 619              		.syntax unified
 620              		.thumb
 621              		.thumb_func
 622              		.fpu softvfp
 624              	HAL_PWR_EnableSleepOnExit:
 625              	.LFB76:
 525:Drivers/STM32Cube_FW_F1_V1.4.0/STM32F1xx_HAL_Driver/Src/stm32f1xx_hal_pwr.c **** 
 526:Drivers/STM32Cube_FW_F1_V1.4.0/STM32F1xx_HAL_Driver/Src/stm32f1xx_hal_pwr.c ****   /* This option is used to ensure that store operations are completed */
 527:Drivers/STM32Cube_FW_F1_V1.4.0/STM32F1xx_HAL_Driver/Src/stm32f1xx_hal_pwr.c **** #if defined ( __CC_ARM)
 528:Drivers/STM32Cube_FW_F1_V1.4.0/STM32F1xx_HAL_Driver/Src/stm32f1xx_hal_pwr.c ****   __force_stores();
 529:Drivers/STM32Cube_FW_F1_V1.4.0/STM32F1xx_HAL_Driver/Src/stm32f1xx_hal_pwr.c **** #endif
 530:Drivers/STM32Cube_FW_F1_V1.4.0/STM32F1xx_HAL_Driver/Src/stm32f1xx_hal_pwr.c ****   /* Request Wait For Interrupt */
 531:Drivers/STM32Cube_FW_F1_V1.4.0/STM32F1xx_HAL_Driver/Src/stm32f1xx_hal_pwr.c ****   __WFI();
 532:Drivers/STM32Cube_FW_F1_V1.4.0/STM32F1xx_HAL_Driver/Src/stm32f1xx_hal_pwr.c **** }
 533:Drivers/STM32Cube_FW_F1_V1.4.0/STM32F1xx_HAL_Driver/Src/stm32f1xx_hal_pwr.c **** 
 534:Drivers/STM32Cube_FW_F1_V1.4.0/STM32F1xx_HAL_Driver/Src/stm32f1xx_hal_pwr.c **** 
 535:Drivers/STM32Cube_FW_F1_V1.4.0/STM32F1xx_HAL_Driver/Src/stm32f1xx_hal_pwr.c **** /**
 536:Drivers/STM32Cube_FW_F1_V1.4.0/STM32F1xx_HAL_Driver/Src/stm32f1xx_hal_pwr.c ****   * @brief Indicates Sleep-On-Exit when returning from Handler mode to Thread mode. 
 537:Drivers/STM32Cube_FW_F1_V1.4.0/STM32F1xx_HAL_Driver/Src/stm32f1xx_hal_pwr.c ****   * @note Set SLEEPONEXIT bit of SCR register. When this bit is set, the processor 
 538:Drivers/STM32Cube_FW_F1_V1.4.0/STM32F1xx_HAL_Driver/Src/stm32f1xx_hal_pwr.c ****   *       re-enters SLEEP mode when an interruption handling is over.
 539:Drivers/STM32Cube_FW_F1_V1.4.0/STM32F1xx_HAL_Driver/Src/stm32f1xx_hal_pwr.c ****   *       Setting this bit is useful when the processor is expected to run only on
 540:Drivers/STM32Cube_FW_F1_V1.4.0/STM32F1xx_HAL_Driver/Src/stm32f1xx_hal_pwr.c ****   *       interruptions handling.         
 541:Drivers/STM32Cube_FW_F1_V1.4.0/STM32F1xx_HAL_Driver/Src/stm32f1xx_hal_pwr.c ****   * @retval None
 542:Drivers/STM32Cube_FW_F1_V1.4.0/STM32F1xx_HAL_Driver/Src/stm32f1xx_hal_pwr.c ****   */
 543:Drivers/STM32Cube_FW_F1_V1.4.0/STM32F1xx_HAL_Driver/Src/stm32f1xx_hal_pwr.c **** void HAL_PWR_EnableSleepOnExit(void)
 544:Drivers/STM32Cube_FW_F1_V1.4.0/STM32F1xx_HAL_Driver/Src/stm32f1xx_hal_pwr.c **** {
 626              		.loc 1 544 0
 627              		.cfi_startproc
 628              		@ args = 0, pretend = 0, frame = 0
 629              		@ frame_needed = 0, uses_anonymous_args = 0
 630              		@ link register save eliminated.
 545:Drivers/STM32Cube_FW_F1_V1.4.0/STM32F1xx_HAL_Driver/Src/stm32f1xx_hal_pwr.c ****   /* Set SLEEPONEXIT bit of Cortex System Control Register */
 546:Drivers/STM32Cube_FW_F1_V1.4.0/STM32F1xx_HAL_Driver/Src/stm32f1xx_hal_pwr.c ****   SET_BIT(SCB->SCR, ((uint32_t)SCB_SCR_SLEEPONEXIT_Msk));
 631              		.loc 1 546 0
 632 0000 024A     		ldr	r2, .L39
 633 0002 1369     		ldr	r3, [r2, #16]
 634 0004 43F00203 		orr	r3, r3, #2
 635 0008 1361     		str	r3, [r2, #16]
 636 000a 7047     		bx	lr
 637              	.L40:
 638              		.align	2
 639              	.L39:
 640 000c 00ED00E0 		.word	-536810240
 641              		.cfi_endproc
 642              	.LFE76:
 644              		.section	.text.HAL_PWR_DisableSleepOnExit,"ax",%progbits
 645              		.align	1
 646              		.global	HAL_PWR_DisableSleepOnExit
 647              		.syntax unified
 648              		.thumb
 649              		.thumb_func
 650              		.fpu softvfp
 652              	HAL_PWR_DisableSleepOnExit:
 653              	.LFB77:
 547:Drivers/STM32Cube_FW_F1_V1.4.0/STM32F1xx_HAL_Driver/Src/stm32f1xx_hal_pwr.c **** }
ARM GAS  /tmp/ccJA6ppf.s 			page 31


 548:Drivers/STM32Cube_FW_F1_V1.4.0/STM32F1xx_HAL_Driver/Src/stm32f1xx_hal_pwr.c **** 
 549:Drivers/STM32Cube_FW_F1_V1.4.0/STM32F1xx_HAL_Driver/Src/stm32f1xx_hal_pwr.c **** 
 550:Drivers/STM32Cube_FW_F1_V1.4.0/STM32F1xx_HAL_Driver/Src/stm32f1xx_hal_pwr.c **** /**
 551:Drivers/STM32Cube_FW_F1_V1.4.0/STM32F1xx_HAL_Driver/Src/stm32f1xx_hal_pwr.c ****   * @brief Disables Sleep-On-Exit feature when returning from Handler mode to Thread mode. 
 552:Drivers/STM32Cube_FW_F1_V1.4.0/STM32F1xx_HAL_Driver/Src/stm32f1xx_hal_pwr.c ****   * @note Clears SLEEPONEXIT bit of SCR register. When this bit is set, the processor 
 553:Drivers/STM32Cube_FW_F1_V1.4.0/STM32F1xx_HAL_Driver/Src/stm32f1xx_hal_pwr.c ****   *       re-enters SLEEP mode when an interruption handling is over.          
 554:Drivers/STM32Cube_FW_F1_V1.4.0/STM32F1xx_HAL_Driver/Src/stm32f1xx_hal_pwr.c ****   * @retval None
 555:Drivers/STM32Cube_FW_F1_V1.4.0/STM32F1xx_HAL_Driver/Src/stm32f1xx_hal_pwr.c ****   */
 556:Drivers/STM32Cube_FW_F1_V1.4.0/STM32F1xx_HAL_Driver/Src/stm32f1xx_hal_pwr.c **** void HAL_PWR_DisableSleepOnExit(void)
 557:Drivers/STM32Cube_FW_F1_V1.4.0/STM32F1xx_HAL_Driver/Src/stm32f1xx_hal_pwr.c **** {
 654              		.loc 1 557 0
 655              		.cfi_startproc
 656              		@ args = 0, pretend = 0, frame = 0
 657              		@ frame_needed = 0, uses_anonymous_args = 0
 658              		@ link register save eliminated.
 558:Drivers/STM32Cube_FW_F1_V1.4.0/STM32F1xx_HAL_Driver/Src/stm32f1xx_hal_pwr.c ****   /* Clear SLEEPONEXIT bit of Cortex System Control Register */
 559:Drivers/STM32Cube_FW_F1_V1.4.0/STM32F1xx_HAL_Driver/Src/stm32f1xx_hal_pwr.c ****   CLEAR_BIT(SCB->SCR, ((uint32_t)SCB_SCR_SLEEPONEXIT_Msk));
 659              		.loc 1 559 0
 660 0000 024A     		ldr	r2, .L42
 661 0002 1369     		ldr	r3, [r2, #16]
 662 0004 23F00203 		bic	r3, r3, #2
 663 0008 1361     		str	r3, [r2, #16]
 664 000a 7047     		bx	lr
 665              	.L43:
 666              		.align	2
 667              	.L42:
 668 000c 00ED00E0 		.word	-536810240
 669              		.cfi_endproc
 670              	.LFE77:
 672              		.section	.text.HAL_PWR_EnableSEVOnPend,"ax",%progbits
 673              		.align	1
 674              		.global	HAL_PWR_EnableSEVOnPend
 675              		.syntax unified
 676              		.thumb
 677              		.thumb_func
 678              		.fpu softvfp
 680              	HAL_PWR_EnableSEVOnPend:
 681              	.LFB78:
 560:Drivers/STM32Cube_FW_F1_V1.4.0/STM32F1xx_HAL_Driver/Src/stm32f1xx_hal_pwr.c **** }
 561:Drivers/STM32Cube_FW_F1_V1.4.0/STM32F1xx_HAL_Driver/Src/stm32f1xx_hal_pwr.c **** 
 562:Drivers/STM32Cube_FW_F1_V1.4.0/STM32F1xx_HAL_Driver/Src/stm32f1xx_hal_pwr.c **** 
 563:Drivers/STM32Cube_FW_F1_V1.4.0/STM32F1xx_HAL_Driver/Src/stm32f1xx_hal_pwr.c **** /**
 564:Drivers/STM32Cube_FW_F1_V1.4.0/STM32F1xx_HAL_Driver/Src/stm32f1xx_hal_pwr.c ****   * @brief Enables CORTEX M3 SEVONPEND bit. 
 565:Drivers/STM32Cube_FW_F1_V1.4.0/STM32F1xx_HAL_Driver/Src/stm32f1xx_hal_pwr.c ****   * @note Sets SEVONPEND bit of SCR register. When this bit is set, this causes 
 566:Drivers/STM32Cube_FW_F1_V1.4.0/STM32F1xx_HAL_Driver/Src/stm32f1xx_hal_pwr.c ****   *       WFE to wake up when an interrupt moves from inactive to pended.
 567:Drivers/STM32Cube_FW_F1_V1.4.0/STM32F1xx_HAL_Driver/Src/stm32f1xx_hal_pwr.c ****   * @retval None
 568:Drivers/STM32Cube_FW_F1_V1.4.0/STM32F1xx_HAL_Driver/Src/stm32f1xx_hal_pwr.c ****   */
 569:Drivers/STM32Cube_FW_F1_V1.4.0/STM32F1xx_HAL_Driver/Src/stm32f1xx_hal_pwr.c **** void HAL_PWR_EnableSEVOnPend(void)
 570:Drivers/STM32Cube_FW_F1_V1.4.0/STM32F1xx_HAL_Driver/Src/stm32f1xx_hal_pwr.c **** {
 682              		.loc 1 570 0
 683              		.cfi_startproc
 684              		@ args = 0, pretend = 0, frame = 0
 685              		@ frame_needed = 0, uses_anonymous_args = 0
 686              		@ link register save eliminated.
 571:Drivers/STM32Cube_FW_F1_V1.4.0/STM32F1xx_HAL_Driver/Src/stm32f1xx_hal_pwr.c ****   /* Set SEVONPEND bit of Cortex System Control Register */
 572:Drivers/STM32Cube_FW_F1_V1.4.0/STM32F1xx_HAL_Driver/Src/stm32f1xx_hal_pwr.c ****   SET_BIT(SCB->SCR, ((uint32_t)SCB_SCR_SEVONPEND_Msk));
 687              		.loc 1 572 0
ARM GAS  /tmp/ccJA6ppf.s 			page 32


 688 0000 024A     		ldr	r2, .L45
 689 0002 1369     		ldr	r3, [r2, #16]
 690 0004 43F01003 		orr	r3, r3, #16
 691 0008 1361     		str	r3, [r2, #16]
 692 000a 7047     		bx	lr
 693              	.L46:
 694              		.align	2
 695              	.L45:
 696 000c 00ED00E0 		.word	-536810240
 697              		.cfi_endproc
 698              	.LFE78:
 700              		.section	.text.HAL_PWR_DisableSEVOnPend,"ax",%progbits
 701              		.align	1
 702              		.global	HAL_PWR_DisableSEVOnPend
 703              		.syntax unified
 704              		.thumb
 705              		.thumb_func
 706              		.fpu softvfp
 708              	HAL_PWR_DisableSEVOnPend:
 709              	.LFB79:
 573:Drivers/STM32Cube_FW_F1_V1.4.0/STM32F1xx_HAL_Driver/Src/stm32f1xx_hal_pwr.c **** }
 574:Drivers/STM32Cube_FW_F1_V1.4.0/STM32F1xx_HAL_Driver/Src/stm32f1xx_hal_pwr.c **** 
 575:Drivers/STM32Cube_FW_F1_V1.4.0/STM32F1xx_HAL_Driver/Src/stm32f1xx_hal_pwr.c **** 
 576:Drivers/STM32Cube_FW_F1_V1.4.0/STM32F1xx_HAL_Driver/Src/stm32f1xx_hal_pwr.c **** /**
 577:Drivers/STM32Cube_FW_F1_V1.4.0/STM32F1xx_HAL_Driver/Src/stm32f1xx_hal_pwr.c ****   * @brief Disables CORTEX M3 SEVONPEND bit. 
 578:Drivers/STM32Cube_FW_F1_V1.4.0/STM32F1xx_HAL_Driver/Src/stm32f1xx_hal_pwr.c ****   * @note Clears SEVONPEND bit of SCR register. When this bit is set, this causes 
 579:Drivers/STM32Cube_FW_F1_V1.4.0/STM32F1xx_HAL_Driver/Src/stm32f1xx_hal_pwr.c ****   *       WFE to wake up when an interrupt moves from inactive to pended.         
 580:Drivers/STM32Cube_FW_F1_V1.4.0/STM32F1xx_HAL_Driver/Src/stm32f1xx_hal_pwr.c ****   * @retval None
 581:Drivers/STM32Cube_FW_F1_V1.4.0/STM32F1xx_HAL_Driver/Src/stm32f1xx_hal_pwr.c ****   */
 582:Drivers/STM32Cube_FW_F1_V1.4.0/STM32F1xx_HAL_Driver/Src/stm32f1xx_hal_pwr.c **** void HAL_PWR_DisableSEVOnPend(void)
 583:Drivers/STM32Cube_FW_F1_V1.4.0/STM32F1xx_HAL_Driver/Src/stm32f1xx_hal_pwr.c **** {
 710              		.loc 1 583 0
 711              		.cfi_startproc
 712              		@ args = 0, pretend = 0, frame = 0
 713              		@ frame_needed = 0, uses_anonymous_args = 0
 714              		@ link register save eliminated.
 584:Drivers/STM32Cube_FW_F1_V1.4.0/STM32F1xx_HAL_Driver/Src/stm32f1xx_hal_pwr.c ****   /* Clear SEVONPEND bit of Cortex System Control Register */
 585:Drivers/STM32Cube_FW_F1_V1.4.0/STM32F1xx_HAL_Driver/Src/stm32f1xx_hal_pwr.c ****   CLEAR_BIT(SCB->SCR, ((uint32_t)SCB_SCR_SEVONPEND_Msk));
 715              		.loc 1 585 0
 716 0000 024A     		ldr	r2, .L48
 717 0002 1369     		ldr	r3, [r2, #16]
 718 0004 23F01003 		bic	r3, r3, #16
 719 0008 1361     		str	r3, [r2, #16]
 720 000a 7047     		bx	lr
 721              	.L49:
 722              		.align	2
 723              	.L48:
 724 000c 00ED00E0 		.word	-536810240
 725              		.cfi_endproc
 726              	.LFE79:
 728              		.section	.text.HAL_PWR_PVDCallback,"ax",%progbits
 729              		.align	1
 730              		.weak	HAL_PWR_PVDCallback
 731              		.syntax unified
 732              		.thumb
 733              		.thumb_func
 734              		.fpu softvfp
ARM GAS  /tmp/ccJA6ppf.s 			page 33


 736              	HAL_PWR_PVDCallback:
 737              	.LFB81:
 586:Drivers/STM32Cube_FW_F1_V1.4.0/STM32F1xx_HAL_Driver/Src/stm32f1xx_hal_pwr.c **** }
 587:Drivers/STM32Cube_FW_F1_V1.4.0/STM32F1xx_HAL_Driver/Src/stm32f1xx_hal_pwr.c **** 
 588:Drivers/STM32Cube_FW_F1_V1.4.0/STM32F1xx_HAL_Driver/Src/stm32f1xx_hal_pwr.c **** 
 589:Drivers/STM32Cube_FW_F1_V1.4.0/STM32F1xx_HAL_Driver/Src/stm32f1xx_hal_pwr.c **** 
 590:Drivers/STM32Cube_FW_F1_V1.4.0/STM32F1xx_HAL_Driver/Src/stm32f1xx_hal_pwr.c **** /**
 591:Drivers/STM32Cube_FW_F1_V1.4.0/STM32F1xx_HAL_Driver/Src/stm32f1xx_hal_pwr.c ****   * @brief  This function handles the PWR PVD interrupt request.
 592:Drivers/STM32Cube_FW_F1_V1.4.0/STM32F1xx_HAL_Driver/Src/stm32f1xx_hal_pwr.c ****   * @note   This API should be called under the PVD_IRQHandler().
 593:Drivers/STM32Cube_FW_F1_V1.4.0/STM32F1xx_HAL_Driver/Src/stm32f1xx_hal_pwr.c ****   * @retval None
 594:Drivers/STM32Cube_FW_F1_V1.4.0/STM32F1xx_HAL_Driver/Src/stm32f1xx_hal_pwr.c ****   */
 595:Drivers/STM32Cube_FW_F1_V1.4.0/STM32F1xx_HAL_Driver/Src/stm32f1xx_hal_pwr.c **** void HAL_PWR_PVD_IRQHandler(void)
 596:Drivers/STM32Cube_FW_F1_V1.4.0/STM32F1xx_HAL_Driver/Src/stm32f1xx_hal_pwr.c **** {
 597:Drivers/STM32Cube_FW_F1_V1.4.0/STM32F1xx_HAL_Driver/Src/stm32f1xx_hal_pwr.c ****   /* Check PWR exti flag */
 598:Drivers/STM32Cube_FW_F1_V1.4.0/STM32F1xx_HAL_Driver/Src/stm32f1xx_hal_pwr.c ****   if(__HAL_PWR_PVD_EXTI_GET_FLAG() != RESET)
 599:Drivers/STM32Cube_FW_F1_V1.4.0/STM32F1xx_HAL_Driver/Src/stm32f1xx_hal_pwr.c ****   {
 600:Drivers/STM32Cube_FW_F1_V1.4.0/STM32F1xx_HAL_Driver/Src/stm32f1xx_hal_pwr.c ****     /* PWR PVD interrupt user callback */
 601:Drivers/STM32Cube_FW_F1_V1.4.0/STM32F1xx_HAL_Driver/Src/stm32f1xx_hal_pwr.c ****     HAL_PWR_PVDCallback();
 602:Drivers/STM32Cube_FW_F1_V1.4.0/STM32F1xx_HAL_Driver/Src/stm32f1xx_hal_pwr.c **** 
 603:Drivers/STM32Cube_FW_F1_V1.4.0/STM32F1xx_HAL_Driver/Src/stm32f1xx_hal_pwr.c ****     /* Clear PWR Exti pending bit */
 604:Drivers/STM32Cube_FW_F1_V1.4.0/STM32F1xx_HAL_Driver/Src/stm32f1xx_hal_pwr.c ****     __HAL_PWR_PVD_EXTI_CLEAR_FLAG();
 605:Drivers/STM32Cube_FW_F1_V1.4.0/STM32F1xx_HAL_Driver/Src/stm32f1xx_hal_pwr.c ****   }
 606:Drivers/STM32Cube_FW_F1_V1.4.0/STM32F1xx_HAL_Driver/Src/stm32f1xx_hal_pwr.c **** }
 607:Drivers/STM32Cube_FW_F1_V1.4.0/STM32F1xx_HAL_Driver/Src/stm32f1xx_hal_pwr.c **** 
 608:Drivers/STM32Cube_FW_F1_V1.4.0/STM32F1xx_HAL_Driver/Src/stm32f1xx_hal_pwr.c **** /**
 609:Drivers/STM32Cube_FW_F1_V1.4.0/STM32F1xx_HAL_Driver/Src/stm32f1xx_hal_pwr.c ****   * @brief  PWR PVD interrupt callback
 610:Drivers/STM32Cube_FW_F1_V1.4.0/STM32F1xx_HAL_Driver/Src/stm32f1xx_hal_pwr.c ****   * @retval None
 611:Drivers/STM32Cube_FW_F1_V1.4.0/STM32F1xx_HAL_Driver/Src/stm32f1xx_hal_pwr.c ****   */
 612:Drivers/STM32Cube_FW_F1_V1.4.0/STM32F1xx_HAL_Driver/Src/stm32f1xx_hal_pwr.c **** __weak void HAL_PWR_PVDCallback(void)
 613:Drivers/STM32Cube_FW_F1_V1.4.0/STM32F1xx_HAL_Driver/Src/stm32f1xx_hal_pwr.c **** {
 738              		.loc 1 613 0
 739              		.cfi_startproc
 740              		@ args = 0, pretend = 0, frame = 0
 741              		@ frame_needed = 0, uses_anonymous_args = 0
 742              		@ link register save eliminated.
 743 0000 7047     		bx	lr
 744              		.cfi_endproc
 745              	.LFE81:
 747              		.section	.text.HAL_PWR_PVD_IRQHandler,"ax",%progbits
 748              		.align	1
 749              		.global	HAL_PWR_PVD_IRQHandler
 750              		.syntax unified
 751              		.thumb
 752              		.thumb_func
 753              		.fpu softvfp
 755              	HAL_PWR_PVD_IRQHandler:
 756              	.LFB80:
 596:Drivers/STM32Cube_FW_F1_V1.4.0/STM32F1xx_HAL_Driver/Src/stm32f1xx_hal_pwr.c ****   /* Check PWR exti flag */
 757              		.loc 1 596 0
 758              		.cfi_startproc
 759              		@ args = 0, pretend = 0, frame = 0
 760              		@ frame_needed = 0, uses_anonymous_args = 0
 596:Drivers/STM32Cube_FW_F1_V1.4.0/STM32F1xx_HAL_Driver/Src/stm32f1xx_hal_pwr.c ****   /* Check PWR exti flag */
 761              		.loc 1 596 0
 762 0000 08B5     		push	{r3, lr}
 763              	.LCFI1:
 764              		.cfi_def_cfa_offset 8
ARM GAS  /tmp/ccJA6ppf.s 			page 34


 765              		.cfi_offset 3, -8
 766              		.cfi_offset 14, -4
 598:Drivers/STM32Cube_FW_F1_V1.4.0/STM32F1xx_HAL_Driver/Src/stm32f1xx_hal_pwr.c ****   {
 767              		.loc 1 598 0
 768 0002 064B     		ldr	r3, .L55
 769 0004 5B69     		ldr	r3, [r3, #20]
 770 0006 13F4803F 		tst	r3, #65536
 771 000a 00D1     		bne	.L54
 772              	.L51:
 773 000c 08BD     		pop	{r3, pc}
 774              	.L54:
 601:Drivers/STM32Cube_FW_F1_V1.4.0/STM32F1xx_HAL_Driver/Src/stm32f1xx_hal_pwr.c **** 
 775              		.loc 1 601 0
 776 000e FFF7FEFF 		bl	HAL_PWR_PVDCallback
 777              	.LVL19:
 604:Drivers/STM32Cube_FW_F1_V1.4.0/STM32F1xx_HAL_Driver/Src/stm32f1xx_hal_pwr.c ****   }
 778              		.loc 1 604 0
 779 0012 4FF48032 		mov	r2, #65536
 780 0016 014B     		ldr	r3, .L55
 781 0018 5A61     		str	r2, [r3, #20]
 606:Drivers/STM32Cube_FW_F1_V1.4.0/STM32F1xx_HAL_Driver/Src/stm32f1xx_hal_pwr.c **** 
 782              		.loc 1 606 0
 783 001a F7E7     		b	.L51
 784              	.L56:
 785              		.align	2
 786              	.L55:
 787 001c 00040140 		.word	1073808384
 788              		.cfi_endproc
 789              	.LFE80:
 791              		.text
 792              	.Letext0:
 793              		.file 3 "/usr/arm-none-eabi/include/machine/_default_types.h"
 794              		.file 4 "/usr/arm-none-eabi/include/sys/_stdint.h"
 795              		.file 5 "Drivers/STM32Cube_FW_F1_V1.4.0/CMSIS/Include/core_cm3.h"
 796              		.file 6 "Drivers/STM32Cube_FW_F1_V1.4.0/CMSIS/Device/STM32F1xx/Include/system_stm32f1xx.h"
 797              		.file 7 "Drivers/STM32Cube_FW_F1_V1.4.0/CMSIS/Device/STM32F1xx/Include/stm32f103xb.h"
 798              		.file 8 "Drivers/STM32Cube_FW_F1_V1.4.0/CMSIS/Device/STM32F1xx/Include/stm32f1xx.h"
 799              		.file 9 "/usr/arm-none-eabi/include/sys/lock.h"
 800              		.file 10 "/usr/arm-none-eabi/include/sys/_types.h"
 801              		.file 11 "/usr/lib/gcc/arm-none-eabi/6.3.1/include/stddef.h"
 802              		.file 12 "/usr/arm-none-eabi/include/sys/reent.h"
 803              		.file 13 "Drivers/STM32Cube_FW_F1_V1.4.0/STM32F1xx_HAL_Driver/Inc/stm32f1xx_hal_pwr.h"
ARM GAS  /tmp/ccJA6ppf.s 			page 35

