ARM GAS  /tmp/ccV4uqBd.s 			page 1


   1              		.cpu cortex-m3
   2              		.eabi_attribute 20, 1
   3              		.eabi_attribute 21, 1
   4              		.eabi_attribute 23, 3
   5              		.eabi_attribute 24, 1
   6              		.eabi_attribute 25, 1
   7              		.eabi_attribute 26, 1
   8              		.eabi_attribute 30, 1
   9              		.eabi_attribute 34, 1
  10              		.eabi_attribute 18, 4
  11              		.file	"stm32f1xx_hal.c"
  12              		.text
  13              	.Ltext0:
  14              		.cfi_sections	.debug_frame
  15              		.section	.text.HAL_MspInit,"ax",%progbits
  16              		.align	1
  17              		.weak	HAL_MspInit
  18              		.syntax unified
  19              		.thumb
  20              		.thumb_func
  21              		.fpu softvfp
  23              	HAL_MspInit:
  24              	.LFB66:
  25              		.file 1 "Drivers/STM32Cube_FW_F1_V1.4.0/STM32F1xx_HAL_Driver/Src/stm32f1xx_hal.c"
   1:Drivers/STM32Cube_FW_F1_V1.4.0/STM32F1xx_HAL_Driver/Src/stm32f1xx_hal.c **** /**
   2:Drivers/STM32Cube_FW_F1_V1.4.0/STM32F1xx_HAL_Driver/Src/stm32f1xx_hal.c ****   ******************************************************************************
   3:Drivers/STM32Cube_FW_F1_V1.4.0/STM32F1xx_HAL_Driver/Src/stm32f1xx_hal.c ****   * @file    stm32f1xx_hal.c
   4:Drivers/STM32Cube_FW_F1_V1.4.0/STM32F1xx_HAL_Driver/Src/stm32f1xx_hal.c ****   * @author  MCD Application Team
   5:Drivers/STM32Cube_FW_F1_V1.4.0/STM32F1xx_HAL_Driver/Src/stm32f1xx_hal.c ****   * @version V1.0.4
   6:Drivers/STM32Cube_FW_F1_V1.4.0/STM32F1xx_HAL_Driver/Src/stm32f1xx_hal.c ****   * @date    29-April-2016
   7:Drivers/STM32Cube_FW_F1_V1.4.0/STM32F1xx_HAL_Driver/Src/stm32f1xx_hal.c ****   * @brief   HAL module driver.
   8:Drivers/STM32Cube_FW_F1_V1.4.0/STM32F1xx_HAL_Driver/Src/stm32f1xx_hal.c ****   *          This is the common part of the HAL initialization
   9:Drivers/STM32Cube_FW_F1_V1.4.0/STM32F1xx_HAL_Driver/Src/stm32f1xx_hal.c ****   *
  10:Drivers/STM32Cube_FW_F1_V1.4.0/STM32F1xx_HAL_Driver/Src/stm32f1xx_hal.c ****   @verbatim
  11:Drivers/STM32Cube_FW_F1_V1.4.0/STM32F1xx_HAL_Driver/Src/stm32f1xx_hal.c ****   ==============================================================================
  12:Drivers/STM32Cube_FW_F1_V1.4.0/STM32F1xx_HAL_Driver/Src/stm32f1xx_hal.c ****                      ##### How to use this driver #####
  13:Drivers/STM32Cube_FW_F1_V1.4.0/STM32F1xx_HAL_Driver/Src/stm32f1xx_hal.c ****   ==============================================================================
  14:Drivers/STM32Cube_FW_F1_V1.4.0/STM32F1xx_HAL_Driver/Src/stm32f1xx_hal.c ****     [..]
  15:Drivers/STM32Cube_FW_F1_V1.4.0/STM32F1xx_HAL_Driver/Src/stm32f1xx_hal.c ****     The common HAL driver contains a set of generic and common APIs that can be
  16:Drivers/STM32Cube_FW_F1_V1.4.0/STM32F1xx_HAL_Driver/Src/stm32f1xx_hal.c ****     used by the PPP peripheral drivers and the user to start using the HAL. 
  17:Drivers/STM32Cube_FW_F1_V1.4.0/STM32F1xx_HAL_Driver/Src/stm32f1xx_hal.c ****     [..]
  18:Drivers/STM32Cube_FW_F1_V1.4.0/STM32F1xx_HAL_Driver/Src/stm32f1xx_hal.c ****     The HAL contains two APIs' categories: 
  19:Drivers/STM32Cube_FW_F1_V1.4.0/STM32F1xx_HAL_Driver/Src/stm32f1xx_hal.c ****          (+) Common HAL APIs
  20:Drivers/STM32Cube_FW_F1_V1.4.0/STM32F1xx_HAL_Driver/Src/stm32f1xx_hal.c ****          (+) Services HAL APIs
  21:Drivers/STM32Cube_FW_F1_V1.4.0/STM32F1xx_HAL_Driver/Src/stm32f1xx_hal.c **** 
  22:Drivers/STM32Cube_FW_F1_V1.4.0/STM32F1xx_HAL_Driver/Src/stm32f1xx_hal.c ****   @endverbatim
  23:Drivers/STM32Cube_FW_F1_V1.4.0/STM32F1xx_HAL_Driver/Src/stm32f1xx_hal.c ****   ******************************************************************************
  24:Drivers/STM32Cube_FW_F1_V1.4.0/STM32F1xx_HAL_Driver/Src/stm32f1xx_hal.c ****   * @attention
  25:Drivers/STM32Cube_FW_F1_V1.4.0/STM32F1xx_HAL_Driver/Src/stm32f1xx_hal.c ****   *
  26:Drivers/STM32Cube_FW_F1_V1.4.0/STM32F1xx_HAL_Driver/Src/stm32f1xx_hal.c ****   * <h2><center>&copy; COPYRIGHT(c) 2016 STMicroelectronics</center></h2>
  27:Drivers/STM32Cube_FW_F1_V1.4.0/STM32F1xx_HAL_Driver/Src/stm32f1xx_hal.c ****   *
  28:Drivers/STM32Cube_FW_F1_V1.4.0/STM32F1xx_HAL_Driver/Src/stm32f1xx_hal.c ****   * Redistribution and use in source and binary forms, with or without modification,
  29:Drivers/STM32Cube_FW_F1_V1.4.0/STM32F1xx_HAL_Driver/Src/stm32f1xx_hal.c ****   * are permitted provided that the following conditions are met:
  30:Drivers/STM32Cube_FW_F1_V1.4.0/STM32F1xx_HAL_Driver/Src/stm32f1xx_hal.c ****   *   1. Redistributions of source code must retain the above copyright notice,
  31:Drivers/STM32Cube_FW_F1_V1.4.0/STM32F1xx_HAL_Driver/Src/stm32f1xx_hal.c ****   *      this list of conditions and the following disclaimer.
  32:Drivers/STM32Cube_FW_F1_V1.4.0/STM32F1xx_HAL_Driver/Src/stm32f1xx_hal.c ****   *   2. Redistributions in binary form must reproduce the above copyright notice,
  33:Drivers/STM32Cube_FW_F1_V1.4.0/STM32F1xx_HAL_Driver/Src/stm32f1xx_hal.c ****   *      this list of conditions and the following disclaimer in the documentation
ARM GAS  /tmp/ccV4uqBd.s 			page 2


  34:Drivers/STM32Cube_FW_F1_V1.4.0/STM32F1xx_HAL_Driver/Src/stm32f1xx_hal.c ****   *      and/or other materials provided with the distribution.
  35:Drivers/STM32Cube_FW_F1_V1.4.0/STM32F1xx_HAL_Driver/Src/stm32f1xx_hal.c ****   *   3. Neither the name of STMicroelectronics nor the names of its contributors
  36:Drivers/STM32Cube_FW_F1_V1.4.0/STM32F1xx_HAL_Driver/Src/stm32f1xx_hal.c ****   *      may be used to endorse or promote products derived from this software
  37:Drivers/STM32Cube_FW_F1_V1.4.0/STM32F1xx_HAL_Driver/Src/stm32f1xx_hal.c ****   *      without specific prior written permission.
  38:Drivers/STM32Cube_FW_F1_V1.4.0/STM32F1xx_HAL_Driver/Src/stm32f1xx_hal.c ****   *
  39:Drivers/STM32Cube_FW_F1_V1.4.0/STM32F1xx_HAL_Driver/Src/stm32f1xx_hal.c ****   * THIS SOFTWARE IS PROVIDED BY THE COPYRIGHT HOLDERS AND CONTRIBUTORS "AS IS"
  40:Drivers/STM32Cube_FW_F1_V1.4.0/STM32F1xx_HAL_Driver/Src/stm32f1xx_hal.c ****   * AND ANY EXPRESS OR IMPLIED WARRANTIES, INCLUDING, BUT NOT LIMITED TO, THE
  41:Drivers/STM32Cube_FW_F1_V1.4.0/STM32F1xx_HAL_Driver/Src/stm32f1xx_hal.c ****   * IMPLIED WARRANTIES OF MERCHANTABILITY AND FITNESS FOR A PARTICULAR PURPOSE ARE
  42:Drivers/STM32Cube_FW_F1_V1.4.0/STM32F1xx_HAL_Driver/Src/stm32f1xx_hal.c ****   * DISCLAIMED. IN NO EVENT SHALL THE COPYRIGHT HOLDER OR CONTRIBUTORS BE LIABLE
  43:Drivers/STM32Cube_FW_F1_V1.4.0/STM32F1xx_HAL_Driver/Src/stm32f1xx_hal.c ****   * FOR ANY DIRECT, INDIRECT, INCIDENTAL, SPECIAL, EXEMPLARY, OR CONSEQUENTIAL
  44:Drivers/STM32Cube_FW_F1_V1.4.0/STM32F1xx_HAL_Driver/Src/stm32f1xx_hal.c ****   * DAMAGES (INCLUDING, BUT NOT LIMITED TO, PROCUREMENT OF SUBSTITUTE GOODS OR
  45:Drivers/STM32Cube_FW_F1_V1.4.0/STM32F1xx_HAL_Driver/Src/stm32f1xx_hal.c ****   * SERVICES; LOSS OF USE, DATA, OR PROFITS; OR BUSINESS INTERRUPTION) HOWEVER
  46:Drivers/STM32Cube_FW_F1_V1.4.0/STM32F1xx_HAL_Driver/Src/stm32f1xx_hal.c ****   * CAUSED AND ON ANY THEORY OF LIABILITY, WHETHER IN CONTRACT, STRICT LIABILITY,
  47:Drivers/STM32Cube_FW_F1_V1.4.0/STM32F1xx_HAL_Driver/Src/stm32f1xx_hal.c ****   * OR TORT (INCLUDING NEGLIGENCE OR OTHERWISE) ARISING IN ANY WAY OUT OF THE USE
  48:Drivers/STM32Cube_FW_F1_V1.4.0/STM32F1xx_HAL_Driver/Src/stm32f1xx_hal.c ****   * OF THIS SOFTWARE, EVEN IF ADVISED OF THE POSSIBILITY OF SUCH DAMAGE.
  49:Drivers/STM32Cube_FW_F1_V1.4.0/STM32F1xx_HAL_Driver/Src/stm32f1xx_hal.c ****   *
  50:Drivers/STM32Cube_FW_F1_V1.4.0/STM32F1xx_HAL_Driver/Src/stm32f1xx_hal.c ****   ******************************************************************************
  51:Drivers/STM32Cube_FW_F1_V1.4.0/STM32F1xx_HAL_Driver/Src/stm32f1xx_hal.c ****   */
  52:Drivers/STM32Cube_FW_F1_V1.4.0/STM32F1xx_HAL_Driver/Src/stm32f1xx_hal.c **** 
  53:Drivers/STM32Cube_FW_F1_V1.4.0/STM32F1xx_HAL_Driver/Src/stm32f1xx_hal.c **** /* Includes ------------------------------------------------------------------*/
  54:Drivers/STM32Cube_FW_F1_V1.4.0/STM32F1xx_HAL_Driver/Src/stm32f1xx_hal.c **** #include "stm32f1xx_hal.h"
  55:Drivers/STM32Cube_FW_F1_V1.4.0/STM32F1xx_HAL_Driver/Src/stm32f1xx_hal.c **** 
  56:Drivers/STM32Cube_FW_F1_V1.4.0/STM32F1xx_HAL_Driver/Src/stm32f1xx_hal.c **** /** @addtogroup STM32F1xx_HAL_Driver
  57:Drivers/STM32Cube_FW_F1_V1.4.0/STM32F1xx_HAL_Driver/Src/stm32f1xx_hal.c ****   * @{
  58:Drivers/STM32Cube_FW_F1_V1.4.0/STM32F1xx_HAL_Driver/Src/stm32f1xx_hal.c ****   */
  59:Drivers/STM32Cube_FW_F1_V1.4.0/STM32F1xx_HAL_Driver/Src/stm32f1xx_hal.c **** 
  60:Drivers/STM32Cube_FW_F1_V1.4.0/STM32F1xx_HAL_Driver/Src/stm32f1xx_hal.c **** /** @defgroup HAL HAL
  61:Drivers/STM32Cube_FW_F1_V1.4.0/STM32F1xx_HAL_Driver/Src/stm32f1xx_hal.c ****   * @brief HAL module driver.
  62:Drivers/STM32Cube_FW_F1_V1.4.0/STM32F1xx_HAL_Driver/Src/stm32f1xx_hal.c ****   * @{
  63:Drivers/STM32Cube_FW_F1_V1.4.0/STM32F1xx_HAL_Driver/Src/stm32f1xx_hal.c ****   */
  64:Drivers/STM32Cube_FW_F1_V1.4.0/STM32F1xx_HAL_Driver/Src/stm32f1xx_hal.c **** 
  65:Drivers/STM32Cube_FW_F1_V1.4.0/STM32F1xx_HAL_Driver/Src/stm32f1xx_hal.c **** #ifdef HAL_MODULE_ENABLED
  66:Drivers/STM32Cube_FW_F1_V1.4.0/STM32F1xx_HAL_Driver/Src/stm32f1xx_hal.c **** 
  67:Drivers/STM32Cube_FW_F1_V1.4.0/STM32F1xx_HAL_Driver/Src/stm32f1xx_hal.c **** /* Private typedef -----------------------------------------------------------*/
  68:Drivers/STM32Cube_FW_F1_V1.4.0/STM32F1xx_HAL_Driver/Src/stm32f1xx_hal.c **** /* Private define ------------------------------------------------------------*/
  69:Drivers/STM32Cube_FW_F1_V1.4.0/STM32F1xx_HAL_Driver/Src/stm32f1xx_hal.c **** 
  70:Drivers/STM32Cube_FW_F1_V1.4.0/STM32F1xx_HAL_Driver/Src/stm32f1xx_hal.c **** /** @defgroup HAL_Private_Constants HAL Private Constants
  71:Drivers/STM32Cube_FW_F1_V1.4.0/STM32F1xx_HAL_Driver/Src/stm32f1xx_hal.c ****   * @{
  72:Drivers/STM32Cube_FW_F1_V1.4.0/STM32F1xx_HAL_Driver/Src/stm32f1xx_hal.c ****   */
  73:Drivers/STM32Cube_FW_F1_V1.4.0/STM32F1xx_HAL_Driver/Src/stm32f1xx_hal.c **** 
  74:Drivers/STM32Cube_FW_F1_V1.4.0/STM32F1xx_HAL_Driver/Src/stm32f1xx_hal.c **** /**
  75:Drivers/STM32Cube_FW_F1_V1.4.0/STM32F1xx_HAL_Driver/Src/stm32f1xx_hal.c ****  * @brief STM32F1xx HAL Driver version number
  76:Drivers/STM32Cube_FW_F1_V1.4.0/STM32F1xx_HAL_Driver/Src/stm32f1xx_hal.c ****    */
  77:Drivers/STM32Cube_FW_F1_V1.4.0/STM32F1xx_HAL_Driver/Src/stm32f1xx_hal.c **** #define __STM32F1xx_HAL_VERSION_MAIN   (0x01) /*!< [31:24] main version */
  78:Drivers/STM32Cube_FW_F1_V1.4.0/STM32F1xx_HAL_Driver/Src/stm32f1xx_hal.c **** #define __STM32F1xx_HAL_VERSION_SUB1   (0x00) /*!< [23:16] sub1 version */
  79:Drivers/STM32Cube_FW_F1_V1.4.0/STM32F1xx_HAL_Driver/Src/stm32f1xx_hal.c **** #define __STM32F1xx_HAL_VERSION_SUB2   (0x04) /*!< [15:8]  sub2 version */
  80:Drivers/STM32Cube_FW_F1_V1.4.0/STM32F1xx_HAL_Driver/Src/stm32f1xx_hal.c **** #define __STM32F1xx_HAL_VERSION_RC     (0x00) /*!< [7:0]  release candidate */
  81:Drivers/STM32Cube_FW_F1_V1.4.0/STM32F1xx_HAL_Driver/Src/stm32f1xx_hal.c **** #define __STM32F1xx_HAL_VERSION         ((__STM32F1xx_HAL_VERSION_MAIN << 24)\
  82:Drivers/STM32Cube_FW_F1_V1.4.0/STM32F1xx_HAL_Driver/Src/stm32f1xx_hal.c ****                                         |(__STM32F1xx_HAL_VERSION_SUB1 << 16)\
  83:Drivers/STM32Cube_FW_F1_V1.4.0/STM32F1xx_HAL_Driver/Src/stm32f1xx_hal.c ****                                         |(__STM32F1xx_HAL_VERSION_SUB2 << 8 )\
  84:Drivers/STM32Cube_FW_F1_V1.4.0/STM32F1xx_HAL_Driver/Src/stm32f1xx_hal.c ****                                         |(__STM32F1xx_HAL_VERSION_RC))
  85:Drivers/STM32Cube_FW_F1_V1.4.0/STM32F1xx_HAL_Driver/Src/stm32f1xx_hal.c **** 
  86:Drivers/STM32Cube_FW_F1_V1.4.0/STM32F1xx_HAL_Driver/Src/stm32f1xx_hal.c **** #define IDCODE_DEVID_MASK    ((uint32_t)0x00000FFF)
  87:Drivers/STM32Cube_FW_F1_V1.4.0/STM32F1xx_HAL_Driver/Src/stm32f1xx_hal.c **** 
  88:Drivers/STM32Cube_FW_F1_V1.4.0/STM32F1xx_HAL_Driver/Src/stm32f1xx_hal.c **** /**
  89:Drivers/STM32Cube_FW_F1_V1.4.0/STM32F1xx_HAL_Driver/Src/stm32f1xx_hal.c ****   * @}
  90:Drivers/STM32Cube_FW_F1_V1.4.0/STM32F1xx_HAL_Driver/Src/stm32f1xx_hal.c ****   */
ARM GAS  /tmp/ccV4uqBd.s 			page 3


  91:Drivers/STM32Cube_FW_F1_V1.4.0/STM32F1xx_HAL_Driver/Src/stm32f1xx_hal.c **** 
  92:Drivers/STM32Cube_FW_F1_V1.4.0/STM32F1xx_HAL_Driver/Src/stm32f1xx_hal.c **** /* Private macro -------------------------------------------------------------*/
  93:Drivers/STM32Cube_FW_F1_V1.4.0/STM32F1xx_HAL_Driver/Src/stm32f1xx_hal.c **** /* Private variables ---------------------------------------------------------*/
  94:Drivers/STM32Cube_FW_F1_V1.4.0/STM32F1xx_HAL_Driver/Src/stm32f1xx_hal.c **** 
  95:Drivers/STM32Cube_FW_F1_V1.4.0/STM32F1xx_HAL_Driver/Src/stm32f1xx_hal.c **** /** @defgroup HAL_Private_Variables HAL Private Variables
  96:Drivers/STM32Cube_FW_F1_V1.4.0/STM32F1xx_HAL_Driver/Src/stm32f1xx_hal.c ****   * @{
  97:Drivers/STM32Cube_FW_F1_V1.4.0/STM32F1xx_HAL_Driver/Src/stm32f1xx_hal.c ****   */
  98:Drivers/STM32Cube_FW_F1_V1.4.0/STM32F1xx_HAL_Driver/Src/stm32f1xx_hal.c **** 
  99:Drivers/STM32Cube_FW_F1_V1.4.0/STM32F1xx_HAL_Driver/Src/stm32f1xx_hal.c **** static __IO uint32_t uwTick;
 100:Drivers/STM32Cube_FW_F1_V1.4.0/STM32F1xx_HAL_Driver/Src/stm32f1xx_hal.c **** 
 101:Drivers/STM32Cube_FW_F1_V1.4.0/STM32F1xx_HAL_Driver/Src/stm32f1xx_hal.c **** /**
 102:Drivers/STM32Cube_FW_F1_V1.4.0/STM32F1xx_HAL_Driver/Src/stm32f1xx_hal.c ****   * @}
 103:Drivers/STM32Cube_FW_F1_V1.4.0/STM32F1xx_HAL_Driver/Src/stm32f1xx_hal.c ****   */
 104:Drivers/STM32Cube_FW_F1_V1.4.0/STM32F1xx_HAL_Driver/Src/stm32f1xx_hal.c **** 
 105:Drivers/STM32Cube_FW_F1_V1.4.0/STM32F1xx_HAL_Driver/Src/stm32f1xx_hal.c **** /* Private function prototypes -----------------------------------------------*/
 106:Drivers/STM32Cube_FW_F1_V1.4.0/STM32F1xx_HAL_Driver/Src/stm32f1xx_hal.c **** /* Exported functions ---------------------------------------------------------*/
 107:Drivers/STM32Cube_FW_F1_V1.4.0/STM32F1xx_HAL_Driver/Src/stm32f1xx_hal.c **** 
 108:Drivers/STM32Cube_FW_F1_V1.4.0/STM32F1xx_HAL_Driver/Src/stm32f1xx_hal.c **** /** @defgroup HAL_Exported_Functions HAL Exported Functions
 109:Drivers/STM32Cube_FW_F1_V1.4.0/STM32F1xx_HAL_Driver/Src/stm32f1xx_hal.c ****   * @{
 110:Drivers/STM32Cube_FW_F1_V1.4.0/STM32F1xx_HAL_Driver/Src/stm32f1xx_hal.c ****   */
 111:Drivers/STM32Cube_FW_F1_V1.4.0/STM32F1xx_HAL_Driver/Src/stm32f1xx_hal.c **** 
 112:Drivers/STM32Cube_FW_F1_V1.4.0/STM32F1xx_HAL_Driver/Src/stm32f1xx_hal.c **** /** @defgroup HAL_Exported_Functions_Group1 Initialization and de-initialization Functions 
 113:Drivers/STM32Cube_FW_F1_V1.4.0/STM32F1xx_HAL_Driver/Src/stm32f1xx_hal.c ****  *  @brief    Initialization and de-initialization functions
 114:Drivers/STM32Cube_FW_F1_V1.4.0/STM32F1xx_HAL_Driver/Src/stm32f1xx_hal.c ****  *
 115:Drivers/STM32Cube_FW_F1_V1.4.0/STM32F1xx_HAL_Driver/Src/stm32f1xx_hal.c **** @verbatim
 116:Drivers/STM32Cube_FW_F1_V1.4.0/STM32F1xx_HAL_Driver/Src/stm32f1xx_hal.c ****  ===============================================================================
 117:Drivers/STM32Cube_FW_F1_V1.4.0/STM32F1xx_HAL_Driver/Src/stm32f1xx_hal.c ****               ##### Initialization and de-initialization functions #####
 118:Drivers/STM32Cube_FW_F1_V1.4.0/STM32F1xx_HAL_Driver/Src/stm32f1xx_hal.c ****  ===============================================================================
 119:Drivers/STM32Cube_FW_F1_V1.4.0/STM32F1xx_HAL_Driver/Src/stm32f1xx_hal.c ****    [..]  This section provides functions allowing to:
 120:Drivers/STM32Cube_FW_F1_V1.4.0/STM32F1xx_HAL_Driver/Src/stm32f1xx_hal.c ****       (+) Initializes the Flash interface, the NVIC allocation and initial clock 
 121:Drivers/STM32Cube_FW_F1_V1.4.0/STM32F1xx_HAL_Driver/Src/stm32f1xx_hal.c ****           configuration. It initializes the source of time base also when timeout 
 122:Drivers/STM32Cube_FW_F1_V1.4.0/STM32F1xx_HAL_Driver/Src/stm32f1xx_hal.c ****           is needed and the backup domain when enabled.
 123:Drivers/STM32Cube_FW_F1_V1.4.0/STM32F1xx_HAL_Driver/Src/stm32f1xx_hal.c ****       (+) de-Initializes common part of the HAL.
 124:Drivers/STM32Cube_FW_F1_V1.4.0/STM32F1xx_HAL_Driver/Src/stm32f1xx_hal.c ****       (+) Configure The time base source to have 1ms time base with a dedicated 
 125:Drivers/STM32Cube_FW_F1_V1.4.0/STM32F1xx_HAL_Driver/Src/stm32f1xx_hal.c ****           Tick interrupt priority. 
 126:Drivers/STM32Cube_FW_F1_V1.4.0/STM32F1xx_HAL_Driver/Src/stm32f1xx_hal.c ****         (++) Systick timer is used by default as source of time base, but user 
 127:Drivers/STM32Cube_FW_F1_V1.4.0/STM32F1xx_HAL_Driver/Src/stm32f1xx_hal.c ****              can eventually implement his proper time base source (a general purpose 
 128:Drivers/STM32Cube_FW_F1_V1.4.0/STM32F1xx_HAL_Driver/Src/stm32f1xx_hal.c ****              timer for example or other time source), keeping in mind that Time base 
 129:Drivers/STM32Cube_FW_F1_V1.4.0/STM32F1xx_HAL_Driver/Src/stm32f1xx_hal.c ****              duration should be kept 1ms since PPP_TIMEOUT_VALUEs are defined and 
 130:Drivers/STM32Cube_FW_F1_V1.4.0/STM32F1xx_HAL_Driver/Src/stm32f1xx_hal.c ****              handled in milliseconds basis.
 131:Drivers/STM32Cube_FW_F1_V1.4.0/STM32F1xx_HAL_Driver/Src/stm32f1xx_hal.c ****         (++) Time base configuration function (HAL_InitTick ()) is called automatically 
 132:Drivers/STM32Cube_FW_F1_V1.4.0/STM32F1xx_HAL_Driver/Src/stm32f1xx_hal.c ****              at the beginning of the program after reset by HAL_Init() or at any time 
 133:Drivers/STM32Cube_FW_F1_V1.4.0/STM32F1xx_HAL_Driver/Src/stm32f1xx_hal.c ****              when clock is configured, by HAL_RCC_ClockConfig(). 
 134:Drivers/STM32Cube_FW_F1_V1.4.0/STM32F1xx_HAL_Driver/Src/stm32f1xx_hal.c ****         (++) Source of time base is configured  to generate interrupts at regular 
 135:Drivers/STM32Cube_FW_F1_V1.4.0/STM32F1xx_HAL_Driver/Src/stm32f1xx_hal.c ****              time intervals. Care must be taken if HAL_Delay() is called from a 
 136:Drivers/STM32Cube_FW_F1_V1.4.0/STM32F1xx_HAL_Driver/Src/stm32f1xx_hal.c ****              peripheral ISR process, the Tick interrupt line must have higher priority 
 137:Drivers/STM32Cube_FW_F1_V1.4.0/STM32F1xx_HAL_Driver/Src/stm32f1xx_hal.c ****             (numerically lower) than the peripheral interrupt. Otherwise the caller 
 138:Drivers/STM32Cube_FW_F1_V1.4.0/STM32F1xx_HAL_Driver/Src/stm32f1xx_hal.c ****             ISR process will be blocked. 
 139:Drivers/STM32Cube_FW_F1_V1.4.0/STM32F1xx_HAL_Driver/Src/stm32f1xx_hal.c ****        (++) functions affecting time base configurations are declared as __Weak  
 140:Drivers/STM32Cube_FW_F1_V1.4.0/STM32F1xx_HAL_Driver/Src/stm32f1xx_hal.c ****              to make  override possible  in case of other  implementations in user file.
 141:Drivers/STM32Cube_FW_F1_V1.4.0/STM32F1xx_HAL_Driver/Src/stm32f1xx_hal.c ****  
 142:Drivers/STM32Cube_FW_F1_V1.4.0/STM32F1xx_HAL_Driver/Src/stm32f1xx_hal.c **** @endverbatim
 143:Drivers/STM32Cube_FW_F1_V1.4.0/STM32F1xx_HAL_Driver/Src/stm32f1xx_hal.c ****   * @{
 144:Drivers/STM32Cube_FW_F1_V1.4.0/STM32F1xx_HAL_Driver/Src/stm32f1xx_hal.c ****   */
 145:Drivers/STM32Cube_FW_F1_V1.4.0/STM32F1xx_HAL_Driver/Src/stm32f1xx_hal.c **** 
 146:Drivers/STM32Cube_FW_F1_V1.4.0/STM32F1xx_HAL_Driver/Src/stm32f1xx_hal.c **** /**
 147:Drivers/STM32Cube_FW_F1_V1.4.0/STM32F1xx_HAL_Driver/Src/stm32f1xx_hal.c ****   * @brief This function configures the Flash prefetch, 
ARM GAS  /tmp/ccV4uqBd.s 			page 4


 148:Drivers/STM32Cube_FW_F1_V1.4.0/STM32F1xx_HAL_Driver/Src/stm32f1xx_hal.c ****   *        Configures time base source, NVIC and Low level hardware
 149:Drivers/STM32Cube_FW_F1_V1.4.0/STM32F1xx_HAL_Driver/Src/stm32f1xx_hal.c ****   * @note This function is called at the beginning of program after reset and before 
 150:Drivers/STM32Cube_FW_F1_V1.4.0/STM32F1xx_HAL_Driver/Src/stm32f1xx_hal.c ****   *       the clock configuration
 151:Drivers/STM32Cube_FW_F1_V1.4.0/STM32F1xx_HAL_Driver/Src/stm32f1xx_hal.c ****   * @note The time base configuration is based on MSI clock when exiting from Reset.
 152:Drivers/STM32Cube_FW_F1_V1.4.0/STM32F1xx_HAL_Driver/Src/stm32f1xx_hal.c ****   *       Once done, time base tick start incrementing.
 153:Drivers/STM32Cube_FW_F1_V1.4.0/STM32F1xx_HAL_Driver/Src/stm32f1xx_hal.c ****   *        In the default implementation,Systick is used as source of time base.
 154:Drivers/STM32Cube_FW_F1_V1.4.0/STM32F1xx_HAL_Driver/Src/stm32f1xx_hal.c ****   *       The tick variable is incremented each 1ms in its ISR.
 155:Drivers/STM32Cube_FW_F1_V1.4.0/STM32F1xx_HAL_Driver/Src/stm32f1xx_hal.c ****   * @retval HAL status
 156:Drivers/STM32Cube_FW_F1_V1.4.0/STM32F1xx_HAL_Driver/Src/stm32f1xx_hal.c ****   */
 157:Drivers/STM32Cube_FW_F1_V1.4.0/STM32F1xx_HAL_Driver/Src/stm32f1xx_hal.c **** HAL_StatusTypeDef HAL_Init(void)
 158:Drivers/STM32Cube_FW_F1_V1.4.0/STM32F1xx_HAL_Driver/Src/stm32f1xx_hal.c **** {
 159:Drivers/STM32Cube_FW_F1_V1.4.0/STM32F1xx_HAL_Driver/Src/stm32f1xx_hal.c ****   /* Configure Flash prefetch */
 160:Drivers/STM32Cube_FW_F1_V1.4.0/STM32F1xx_HAL_Driver/Src/stm32f1xx_hal.c **** #if (PREFETCH_ENABLE != 0)
 161:Drivers/STM32Cube_FW_F1_V1.4.0/STM32F1xx_HAL_Driver/Src/stm32f1xx_hal.c **** #if defined(STM32F101x6) || defined(STM32F101xB) || defined(STM32F101xE) || defined(STM32F101xG) ||
 162:Drivers/STM32Cube_FW_F1_V1.4.0/STM32F1xx_HAL_Driver/Src/stm32f1xx_hal.c ****     defined(STM32F102x6) || defined(STM32F102xB) || \
 163:Drivers/STM32Cube_FW_F1_V1.4.0/STM32F1xx_HAL_Driver/Src/stm32f1xx_hal.c ****     defined(STM32F103x6) || defined(STM32F103xB) || defined(STM32F103xE) || defined(STM32F103xG) ||
 164:Drivers/STM32Cube_FW_F1_V1.4.0/STM32F1xx_HAL_Driver/Src/stm32f1xx_hal.c ****     defined(STM32F105xC) || defined(STM32F107xC)
 165:Drivers/STM32Cube_FW_F1_V1.4.0/STM32F1xx_HAL_Driver/Src/stm32f1xx_hal.c **** 
 166:Drivers/STM32Cube_FW_F1_V1.4.0/STM32F1xx_HAL_Driver/Src/stm32f1xx_hal.c ****   /* Prefetch buffer is not available on value line devices */
 167:Drivers/STM32Cube_FW_F1_V1.4.0/STM32F1xx_HAL_Driver/Src/stm32f1xx_hal.c ****   __HAL_FLASH_PREFETCH_BUFFER_ENABLE();
 168:Drivers/STM32Cube_FW_F1_V1.4.0/STM32F1xx_HAL_Driver/Src/stm32f1xx_hal.c **** #endif
 169:Drivers/STM32Cube_FW_F1_V1.4.0/STM32F1xx_HAL_Driver/Src/stm32f1xx_hal.c **** #endif /* PREFETCH_ENABLE */
 170:Drivers/STM32Cube_FW_F1_V1.4.0/STM32F1xx_HAL_Driver/Src/stm32f1xx_hal.c **** 
 171:Drivers/STM32Cube_FW_F1_V1.4.0/STM32F1xx_HAL_Driver/Src/stm32f1xx_hal.c ****   /* Set Interrupt Group Priority */
 172:Drivers/STM32Cube_FW_F1_V1.4.0/STM32F1xx_HAL_Driver/Src/stm32f1xx_hal.c ****   HAL_NVIC_SetPriorityGrouping(NVIC_PRIORITYGROUP_4);
 173:Drivers/STM32Cube_FW_F1_V1.4.0/STM32F1xx_HAL_Driver/Src/stm32f1xx_hal.c **** 
 174:Drivers/STM32Cube_FW_F1_V1.4.0/STM32F1xx_HAL_Driver/Src/stm32f1xx_hal.c ****   /* Use systick as time base source and configure 1ms tick (default clock after Reset is MSI) */
 175:Drivers/STM32Cube_FW_F1_V1.4.0/STM32F1xx_HAL_Driver/Src/stm32f1xx_hal.c ****   HAL_InitTick(TICK_INT_PRIORITY);
 176:Drivers/STM32Cube_FW_F1_V1.4.0/STM32F1xx_HAL_Driver/Src/stm32f1xx_hal.c **** 
 177:Drivers/STM32Cube_FW_F1_V1.4.0/STM32F1xx_HAL_Driver/Src/stm32f1xx_hal.c ****   /* Init the low level hardware */
 178:Drivers/STM32Cube_FW_F1_V1.4.0/STM32F1xx_HAL_Driver/Src/stm32f1xx_hal.c ****   HAL_MspInit();
 179:Drivers/STM32Cube_FW_F1_V1.4.0/STM32F1xx_HAL_Driver/Src/stm32f1xx_hal.c **** 
 180:Drivers/STM32Cube_FW_F1_V1.4.0/STM32F1xx_HAL_Driver/Src/stm32f1xx_hal.c ****   /* Return function status */
 181:Drivers/STM32Cube_FW_F1_V1.4.0/STM32F1xx_HAL_Driver/Src/stm32f1xx_hal.c ****   return HAL_OK;
 182:Drivers/STM32Cube_FW_F1_V1.4.0/STM32F1xx_HAL_Driver/Src/stm32f1xx_hal.c **** }
 183:Drivers/STM32Cube_FW_F1_V1.4.0/STM32F1xx_HAL_Driver/Src/stm32f1xx_hal.c **** 
 184:Drivers/STM32Cube_FW_F1_V1.4.0/STM32F1xx_HAL_Driver/Src/stm32f1xx_hal.c **** /**
 185:Drivers/STM32Cube_FW_F1_V1.4.0/STM32F1xx_HAL_Driver/Src/stm32f1xx_hal.c ****   * @brief This function de-Initializes common part of the HAL and stops the source
 186:Drivers/STM32Cube_FW_F1_V1.4.0/STM32F1xx_HAL_Driver/Src/stm32f1xx_hal.c ****   *        of time base.
 187:Drivers/STM32Cube_FW_F1_V1.4.0/STM32F1xx_HAL_Driver/Src/stm32f1xx_hal.c ****   * @note This function is optional.
 188:Drivers/STM32Cube_FW_F1_V1.4.0/STM32F1xx_HAL_Driver/Src/stm32f1xx_hal.c ****   * @retval HAL status
 189:Drivers/STM32Cube_FW_F1_V1.4.0/STM32F1xx_HAL_Driver/Src/stm32f1xx_hal.c ****   */
 190:Drivers/STM32Cube_FW_F1_V1.4.0/STM32F1xx_HAL_Driver/Src/stm32f1xx_hal.c **** HAL_StatusTypeDef HAL_DeInit(void)
 191:Drivers/STM32Cube_FW_F1_V1.4.0/STM32F1xx_HAL_Driver/Src/stm32f1xx_hal.c **** {
 192:Drivers/STM32Cube_FW_F1_V1.4.0/STM32F1xx_HAL_Driver/Src/stm32f1xx_hal.c ****   /* Reset of all peripherals */
 193:Drivers/STM32Cube_FW_F1_V1.4.0/STM32F1xx_HAL_Driver/Src/stm32f1xx_hal.c ****   __HAL_RCC_APB1_FORCE_RESET();
 194:Drivers/STM32Cube_FW_F1_V1.4.0/STM32F1xx_HAL_Driver/Src/stm32f1xx_hal.c ****   __HAL_RCC_APB1_RELEASE_RESET();
 195:Drivers/STM32Cube_FW_F1_V1.4.0/STM32F1xx_HAL_Driver/Src/stm32f1xx_hal.c **** 
 196:Drivers/STM32Cube_FW_F1_V1.4.0/STM32F1xx_HAL_Driver/Src/stm32f1xx_hal.c ****   __HAL_RCC_APB2_FORCE_RESET();
 197:Drivers/STM32Cube_FW_F1_V1.4.0/STM32F1xx_HAL_Driver/Src/stm32f1xx_hal.c ****   __HAL_RCC_APB2_RELEASE_RESET();
 198:Drivers/STM32Cube_FW_F1_V1.4.0/STM32F1xx_HAL_Driver/Src/stm32f1xx_hal.c **** 
 199:Drivers/STM32Cube_FW_F1_V1.4.0/STM32F1xx_HAL_Driver/Src/stm32f1xx_hal.c **** #if defined(STM32F105xC) || defined(STM32F107xC)
 200:Drivers/STM32Cube_FW_F1_V1.4.0/STM32F1xx_HAL_Driver/Src/stm32f1xx_hal.c ****   __HAL_RCC_AHB_FORCE_RESET();
 201:Drivers/STM32Cube_FW_F1_V1.4.0/STM32F1xx_HAL_Driver/Src/stm32f1xx_hal.c ****   __HAL_RCC_AHB_RELEASE_RESET();
 202:Drivers/STM32Cube_FW_F1_V1.4.0/STM32F1xx_HAL_Driver/Src/stm32f1xx_hal.c **** #endif
 203:Drivers/STM32Cube_FW_F1_V1.4.0/STM32F1xx_HAL_Driver/Src/stm32f1xx_hal.c ****   
 204:Drivers/STM32Cube_FW_F1_V1.4.0/STM32F1xx_HAL_Driver/Src/stm32f1xx_hal.c ****   /* De-Init the low level hardware */
ARM GAS  /tmp/ccV4uqBd.s 			page 5


 205:Drivers/STM32Cube_FW_F1_V1.4.0/STM32F1xx_HAL_Driver/Src/stm32f1xx_hal.c ****   HAL_MspDeInit();
 206:Drivers/STM32Cube_FW_F1_V1.4.0/STM32F1xx_HAL_Driver/Src/stm32f1xx_hal.c ****     
 207:Drivers/STM32Cube_FW_F1_V1.4.0/STM32F1xx_HAL_Driver/Src/stm32f1xx_hal.c ****   /* Return function status */
 208:Drivers/STM32Cube_FW_F1_V1.4.0/STM32F1xx_HAL_Driver/Src/stm32f1xx_hal.c ****   return HAL_OK;
 209:Drivers/STM32Cube_FW_F1_V1.4.0/STM32F1xx_HAL_Driver/Src/stm32f1xx_hal.c **** }
 210:Drivers/STM32Cube_FW_F1_V1.4.0/STM32F1xx_HAL_Driver/Src/stm32f1xx_hal.c **** 
 211:Drivers/STM32Cube_FW_F1_V1.4.0/STM32F1xx_HAL_Driver/Src/stm32f1xx_hal.c **** /**
 212:Drivers/STM32Cube_FW_F1_V1.4.0/STM32F1xx_HAL_Driver/Src/stm32f1xx_hal.c ****   * @brief  Initializes the MSP.
 213:Drivers/STM32Cube_FW_F1_V1.4.0/STM32F1xx_HAL_Driver/Src/stm32f1xx_hal.c ****   * @retval None
 214:Drivers/STM32Cube_FW_F1_V1.4.0/STM32F1xx_HAL_Driver/Src/stm32f1xx_hal.c ****   */
 215:Drivers/STM32Cube_FW_F1_V1.4.0/STM32F1xx_HAL_Driver/Src/stm32f1xx_hal.c **** __weak void HAL_MspInit(void)
 216:Drivers/STM32Cube_FW_F1_V1.4.0/STM32F1xx_HAL_Driver/Src/stm32f1xx_hal.c **** {
  26              		.loc 1 216 0
  27              		.cfi_startproc
  28              		@ args = 0, pretend = 0, frame = 0
  29              		@ frame_needed = 0, uses_anonymous_args = 0
  30              		@ link register save eliminated.
  31 0000 7047     		bx	lr
  32              		.cfi_endproc
  33              	.LFE66:
  35              		.section	.text.HAL_MspDeInit,"ax",%progbits
  36              		.align	1
  37              		.weak	HAL_MspDeInit
  38              		.syntax unified
  39              		.thumb
  40              		.thumb_func
  41              		.fpu softvfp
  43              	HAL_MspDeInit:
  44              	.LFB67:
 217:Drivers/STM32Cube_FW_F1_V1.4.0/STM32F1xx_HAL_Driver/Src/stm32f1xx_hal.c ****   /* NOTE : This function Should not be modified, when the callback is needed,
 218:Drivers/STM32Cube_FW_F1_V1.4.0/STM32F1xx_HAL_Driver/Src/stm32f1xx_hal.c ****             the HAL_MspInit could be implemented in the user file
 219:Drivers/STM32Cube_FW_F1_V1.4.0/STM32F1xx_HAL_Driver/Src/stm32f1xx_hal.c ****    */
 220:Drivers/STM32Cube_FW_F1_V1.4.0/STM32F1xx_HAL_Driver/Src/stm32f1xx_hal.c **** }
 221:Drivers/STM32Cube_FW_F1_V1.4.0/STM32F1xx_HAL_Driver/Src/stm32f1xx_hal.c **** 
 222:Drivers/STM32Cube_FW_F1_V1.4.0/STM32F1xx_HAL_Driver/Src/stm32f1xx_hal.c **** /**
 223:Drivers/STM32Cube_FW_F1_V1.4.0/STM32F1xx_HAL_Driver/Src/stm32f1xx_hal.c ****   * @brief  DeInitializes the MSP.
 224:Drivers/STM32Cube_FW_F1_V1.4.0/STM32F1xx_HAL_Driver/Src/stm32f1xx_hal.c ****   * @retval None
 225:Drivers/STM32Cube_FW_F1_V1.4.0/STM32F1xx_HAL_Driver/Src/stm32f1xx_hal.c ****   */
 226:Drivers/STM32Cube_FW_F1_V1.4.0/STM32F1xx_HAL_Driver/Src/stm32f1xx_hal.c **** __weak void HAL_MspDeInit(void)
 227:Drivers/STM32Cube_FW_F1_V1.4.0/STM32F1xx_HAL_Driver/Src/stm32f1xx_hal.c **** {
  45              		.loc 1 227 0
  46              		.cfi_startproc
  47              		@ args = 0, pretend = 0, frame = 0
  48              		@ frame_needed = 0, uses_anonymous_args = 0
  49              		@ link register save eliminated.
  50 0000 7047     		bx	lr
  51              		.cfi_endproc
  52              	.LFE67:
  54              		.section	.text.HAL_DeInit,"ax",%progbits
  55              		.align	1
  56              		.global	HAL_DeInit
  57              		.syntax unified
  58              		.thumb
  59              		.thumb_func
  60              		.fpu softvfp
  62              	HAL_DeInit:
  63              	.LFB65:
ARM GAS  /tmp/ccV4uqBd.s 			page 6


 191:Drivers/STM32Cube_FW_F1_V1.4.0/STM32F1xx_HAL_Driver/Src/stm32f1xx_hal.c ****   /* Reset of all peripherals */
  64              		.loc 1 191 0
  65              		.cfi_startproc
  66              		@ args = 0, pretend = 0, frame = 0
  67              		@ frame_needed = 0, uses_anonymous_args = 0
 191:Drivers/STM32Cube_FW_F1_V1.4.0/STM32F1xx_HAL_Driver/Src/stm32f1xx_hal.c ****   /* Reset of all peripherals */
  68              		.loc 1 191 0
  69 0000 10B5     		push	{r4, lr}
  70              	.LCFI0:
  71              		.cfi_def_cfa_offset 8
  72              		.cfi_offset 4, -8
  73              		.cfi_offset 14, -4
 193:Drivers/STM32Cube_FW_F1_V1.4.0/STM32F1xx_HAL_Driver/Src/stm32f1xx_hal.c ****   __HAL_RCC_APB1_RELEASE_RESET();
  74              		.loc 1 193 0
  75 0002 064B     		ldr	r3, .L5
  76 0004 4FF0FF32 		mov	r2, #-1
  77 0008 DA60     		str	r2, [r3, #12]
 194:Drivers/STM32Cube_FW_F1_V1.4.0/STM32F1xx_HAL_Driver/Src/stm32f1xx_hal.c **** 
  78              		.loc 1 194 0
  79 000a 0024     		movs	r4, #0
  80 000c 1C61     		str	r4, [r3, #16]
 196:Drivers/STM32Cube_FW_F1_V1.4.0/STM32F1xx_HAL_Driver/Src/stm32f1xx_hal.c ****   __HAL_RCC_APB2_RELEASE_RESET();
  81              		.loc 1 196 0
  82 000e DA60     		str	r2, [r3, #12]
 197:Drivers/STM32Cube_FW_F1_V1.4.0/STM32F1xx_HAL_Driver/Src/stm32f1xx_hal.c **** 
  83              		.loc 1 197 0
  84 0010 DC60     		str	r4, [r3, #12]
 205:Drivers/STM32Cube_FW_F1_V1.4.0/STM32F1xx_HAL_Driver/Src/stm32f1xx_hal.c ****     
  85              		.loc 1 205 0
  86 0012 FFF7FEFF 		bl	HAL_MspDeInit
  87              	.LVL0:
 209:Drivers/STM32Cube_FW_F1_V1.4.0/STM32F1xx_HAL_Driver/Src/stm32f1xx_hal.c **** 
  88              		.loc 1 209 0
  89 0016 2046     		mov	r0, r4
  90 0018 10BD     		pop	{r4, pc}
  91              	.L6:
  92 001a 00BF     		.align	2
  93              	.L5:
  94 001c 00100240 		.word	1073876992
  95              		.cfi_endproc
  96              	.LFE65:
  98              		.section	.text.HAL_InitTick,"ax",%progbits
  99              		.align	1
 100              		.weak	HAL_InitTick
 101              		.syntax unified
 102              		.thumb
 103              		.thumb_func
 104              		.fpu softvfp
 106              	HAL_InitTick:
 107              	.LFB68:
 228:Drivers/STM32Cube_FW_F1_V1.4.0/STM32F1xx_HAL_Driver/Src/stm32f1xx_hal.c ****   /* NOTE : This function Should not be modified, when the callback is needed,
 229:Drivers/STM32Cube_FW_F1_V1.4.0/STM32F1xx_HAL_Driver/Src/stm32f1xx_hal.c ****             the HAL_MspDeInit could be implemented in the user file
 230:Drivers/STM32Cube_FW_F1_V1.4.0/STM32F1xx_HAL_Driver/Src/stm32f1xx_hal.c ****    */
 231:Drivers/STM32Cube_FW_F1_V1.4.0/STM32F1xx_HAL_Driver/Src/stm32f1xx_hal.c **** }
 232:Drivers/STM32Cube_FW_F1_V1.4.0/STM32F1xx_HAL_Driver/Src/stm32f1xx_hal.c **** 
 233:Drivers/STM32Cube_FW_F1_V1.4.0/STM32F1xx_HAL_Driver/Src/stm32f1xx_hal.c **** /**
 234:Drivers/STM32Cube_FW_F1_V1.4.0/STM32F1xx_HAL_Driver/Src/stm32f1xx_hal.c ****   * @brief This function configures the source of the time base. 
ARM GAS  /tmp/ccV4uqBd.s 			page 7


 235:Drivers/STM32Cube_FW_F1_V1.4.0/STM32F1xx_HAL_Driver/Src/stm32f1xx_hal.c ****   *        The time source is configured  to have 1ms time base with a dedicated 
 236:Drivers/STM32Cube_FW_F1_V1.4.0/STM32F1xx_HAL_Driver/Src/stm32f1xx_hal.c ****   *        Tick interrupt priority.
 237:Drivers/STM32Cube_FW_F1_V1.4.0/STM32F1xx_HAL_Driver/Src/stm32f1xx_hal.c ****   * @note This function is called  automatically at the beginning of program after
 238:Drivers/STM32Cube_FW_F1_V1.4.0/STM32F1xx_HAL_Driver/Src/stm32f1xx_hal.c ****   *       reset by HAL_Init() or at any time when clock is reconfigured  by HAL_RCC_ClockConfig(). 
 239:Drivers/STM32Cube_FW_F1_V1.4.0/STM32F1xx_HAL_Driver/Src/stm32f1xx_hal.c ****   * @note In the default implementation, SysTick timer is the source of time base. 
 240:Drivers/STM32Cube_FW_F1_V1.4.0/STM32F1xx_HAL_Driver/Src/stm32f1xx_hal.c ****   *       It is used to generate interrupts at regular time intervals. 
 241:Drivers/STM32Cube_FW_F1_V1.4.0/STM32F1xx_HAL_Driver/Src/stm32f1xx_hal.c ****   *       Care must be taken if HAL_Delay() is called from a peripheral ISR process, 
 242:Drivers/STM32Cube_FW_F1_V1.4.0/STM32F1xx_HAL_Driver/Src/stm32f1xx_hal.c ****   *       The the SysTick interrupt must have higher priority (numerically lower) 
 243:Drivers/STM32Cube_FW_F1_V1.4.0/STM32F1xx_HAL_Driver/Src/stm32f1xx_hal.c ****   *       than the peripheral interrupt. Otherwise the caller ISR process will be blocked.
 244:Drivers/STM32Cube_FW_F1_V1.4.0/STM32F1xx_HAL_Driver/Src/stm32f1xx_hal.c ****   *       The function is declared as __Weak  to be overwritten  in case of other
 245:Drivers/STM32Cube_FW_F1_V1.4.0/STM32F1xx_HAL_Driver/Src/stm32f1xx_hal.c ****   *       implementation  in user file.
 246:Drivers/STM32Cube_FW_F1_V1.4.0/STM32F1xx_HAL_Driver/Src/stm32f1xx_hal.c ****   * @param TickPriority: Tick interrupt priority.
 247:Drivers/STM32Cube_FW_F1_V1.4.0/STM32F1xx_HAL_Driver/Src/stm32f1xx_hal.c ****   * @retval HAL status
 248:Drivers/STM32Cube_FW_F1_V1.4.0/STM32F1xx_HAL_Driver/Src/stm32f1xx_hal.c ****   */
 249:Drivers/STM32Cube_FW_F1_V1.4.0/STM32F1xx_HAL_Driver/Src/stm32f1xx_hal.c **** __weak HAL_StatusTypeDef HAL_InitTick(uint32_t TickPriority)
 250:Drivers/STM32Cube_FW_F1_V1.4.0/STM32F1xx_HAL_Driver/Src/stm32f1xx_hal.c **** {
 108              		.loc 1 250 0
 109              		.cfi_startproc
 110              		@ args = 0, pretend = 0, frame = 0
 111              		@ frame_needed = 0, uses_anonymous_args = 0
 112              	.LVL1:
 113 0000 10B5     		push	{r4, lr}
 114              	.LCFI1:
 115              		.cfi_def_cfa_offset 8
 116              		.cfi_offset 4, -8
 117              		.cfi_offset 14, -4
 118 0002 0446     		mov	r4, r0
 251:Drivers/STM32Cube_FW_F1_V1.4.0/STM32F1xx_HAL_Driver/Src/stm32f1xx_hal.c ****   /*Configure the SysTick to have interrupt in 1ms time basis*/
 252:Drivers/STM32Cube_FW_F1_V1.4.0/STM32F1xx_HAL_Driver/Src/stm32f1xx_hal.c ****   HAL_SYSTICK_Config(HAL_RCC_GetHCLKFreq()/1000);
 119              		.loc 1 252 0
 120 0004 FFF7FEFF 		bl	HAL_RCC_GetHCLKFreq
 121              	.LVL2:
 122 0008 064B     		ldr	r3, .L9
 123 000a A3FB0030 		umull	r3, r0, r3, r0
 124 000e 8009     		lsrs	r0, r0, #6
 125 0010 FFF7FEFF 		bl	HAL_SYSTICK_Config
 126              	.LVL3:
 253:Drivers/STM32Cube_FW_F1_V1.4.0/STM32F1xx_HAL_Driver/Src/stm32f1xx_hal.c **** 
 254:Drivers/STM32Cube_FW_F1_V1.4.0/STM32F1xx_HAL_Driver/Src/stm32f1xx_hal.c ****   /*Configure the SysTick IRQ priority */
 255:Drivers/STM32Cube_FW_F1_V1.4.0/STM32F1xx_HAL_Driver/Src/stm32f1xx_hal.c ****   HAL_NVIC_SetPriority(SysTick_IRQn, TickPriority ,0);
 127              		.loc 1 255 0
 128 0014 0022     		movs	r2, #0
 129 0016 2146     		mov	r1, r4
 130 0018 4FF0FF30 		mov	r0, #-1
 131 001c FFF7FEFF 		bl	HAL_NVIC_SetPriority
 132              	.LVL4:
 256:Drivers/STM32Cube_FW_F1_V1.4.0/STM32F1xx_HAL_Driver/Src/stm32f1xx_hal.c **** 
 257:Drivers/STM32Cube_FW_F1_V1.4.0/STM32F1xx_HAL_Driver/Src/stm32f1xx_hal.c ****    /* Return function status */
 258:Drivers/STM32Cube_FW_F1_V1.4.0/STM32F1xx_HAL_Driver/Src/stm32f1xx_hal.c ****   return HAL_OK;
 259:Drivers/STM32Cube_FW_F1_V1.4.0/STM32F1xx_HAL_Driver/Src/stm32f1xx_hal.c **** }
 133              		.loc 1 259 0
 134 0020 0020     		movs	r0, #0
 135 0022 10BD     		pop	{r4, pc}
 136              	.LVL5:
 137              	.L10:
 138              		.align	2
 139              	.L9:
ARM GAS  /tmp/ccV4uqBd.s 			page 8


 140 0024 D34D6210 		.word	274877907
 141              		.cfi_endproc
 142              	.LFE68:
 144              		.section	.text.HAL_Init,"ax",%progbits
 145              		.align	1
 146              		.global	HAL_Init
 147              		.syntax unified
 148              		.thumb
 149              		.thumb_func
 150              		.fpu softvfp
 152              	HAL_Init:
 153              	.LFB64:
 158:Drivers/STM32Cube_FW_F1_V1.4.0/STM32F1xx_HAL_Driver/Src/stm32f1xx_hal.c ****   /* Configure Flash prefetch */
 154              		.loc 1 158 0
 155              		.cfi_startproc
 156              		@ args = 0, pretend = 0, frame = 0
 157              		@ frame_needed = 0, uses_anonymous_args = 0
 158 0000 08B5     		push	{r3, lr}
 159              	.LCFI2:
 160              		.cfi_def_cfa_offset 8
 161              		.cfi_offset 3, -8
 162              		.cfi_offset 14, -4
 167:Drivers/STM32Cube_FW_F1_V1.4.0/STM32F1xx_HAL_Driver/Src/stm32f1xx_hal.c **** #endif
 163              		.loc 1 167 0
 164 0002 074A     		ldr	r2, .L13
 165 0004 1368     		ldr	r3, [r2]
 166 0006 43F01003 		orr	r3, r3, #16
 167 000a 1360     		str	r3, [r2]
 172:Drivers/STM32Cube_FW_F1_V1.4.0/STM32F1xx_HAL_Driver/Src/stm32f1xx_hal.c **** 
 168              		.loc 1 172 0
 169 000c 0320     		movs	r0, #3
 170 000e FFF7FEFF 		bl	HAL_NVIC_SetPriorityGrouping
 171              	.LVL6:
 175:Drivers/STM32Cube_FW_F1_V1.4.0/STM32F1xx_HAL_Driver/Src/stm32f1xx_hal.c **** 
 172              		.loc 1 175 0
 173 0012 0F20     		movs	r0, #15
 174 0014 FFF7FEFF 		bl	HAL_InitTick
 175              	.LVL7:
 178:Drivers/STM32Cube_FW_F1_V1.4.0/STM32F1xx_HAL_Driver/Src/stm32f1xx_hal.c **** 
 176              		.loc 1 178 0
 177 0018 FFF7FEFF 		bl	HAL_MspInit
 178              	.LVL8:
 182:Drivers/STM32Cube_FW_F1_V1.4.0/STM32F1xx_HAL_Driver/Src/stm32f1xx_hal.c **** 
 179              		.loc 1 182 0
 180 001c 0020     		movs	r0, #0
 181 001e 08BD     		pop	{r3, pc}
 182              	.L14:
 183              		.align	2
 184              	.L13:
 185 0020 00200240 		.word	1073881088
 186              		.cfi_endproc
 187              	.LFE64:
 189              		.section	.text.HAL_IncTick,"ax",%progbits
 190              		.align	1
 191              		.weak	HAL_IncTick
 192              		.syntax unified
 193              		.thumb
ARM GAS  /tmp/ccV4uqBd.s 			page 9


 194              		.thumb_func
 195              		.fpu softvfp
 197              	HAL_IncTick:
 198              	.LFB69:
 260:Drivers/STM32Cube_FW_F1_V1.4.0/STM32F1xx_HAL_Driver/Src/stm32f1xx_hal.c **** 
 261:Drivers/STM32Cube_FW_F1_V1.4.0/STM32F1xx_HAL_Driver/Src/stm32f1xx_hal.c **** /**
 262:Drivers/STM32Cube_FW_F1_V1.4.0/STM32F1xx_HAL_Driver/Src/stm32f1xx_hal.c ****   * @}
 263:Drivers/STM32Cube_FW_F1_V1.4.0/STM32F1xx_HAL_Driver/Src/stm32f1xx_hal.c ****   */
 264:Drivers/STM32Cube_FW_F1_V1.4.0/STM32F1xx_HAL_Driver/Src/stm32f1xx_hal.c **** 
 265:Drivers/STM32Cube_FW_F1_V1.4.0/STM32F1xx_HAL_Driver/Src/stm32f1xx_hal.c **** /** @defgroup HAL_Exported_Functions_Group2 HAL Control functions 
 266:Drivers/STM32Cube_FW_F1_V1.4.0/STM32F1xx_HAL_Driver/Src/stm32f1xx_hal.c ****  *  @brief    HAL Control functions
 267:Drivers/STM32Cube_FW_F1_V1.4.0/STM32F1xx_HAL_Driver/Src/stm32f1xx_hal.c ****  *
 268:Drivers/STM32Cube_FW_F1_V1.4.0/STM32F1xx_HAL_Driver/Src/stm32f1xx_hal.c **** @verbatim
 269:Drivers/STM32Cube_FW_F1_V1.4.0/STM32F1xx_HAL_Driver/Src/stm32f1xx_hal.c ****  ===============================================================================
 270:Drivers/STM32Cube_FW_F1_V1.4.0/STM32F1xx_HAL_Driver/Src/stm32f1xx_hal.c ****                       ##### HAL Control functions #####
 271:Drivers/STM32Cube_FW_F1_V1.4.0/STM32F1xx_HAL_Driver/Src/stm32f1xx_hal.c ****  ===============================================================================
 272:Drivers/STM32Cube_FW_F1_V1.4.0/STM32F1xx_HAL_Driver/Src/stm32f1xx_hal.c ****     [..]  This section provides functions allowing to:
 273:Drivers/STM32Cube_FW_F1_V1.4.0/STM32F1xx_HAL_Driver/Src/stm32f1xx_hal.c ****       (+) Provide a tick value in millisecond
 274:Drivers/STM32Cube_FW_F1_V1.4.0/STM32F1xx_HAL_Driver/Src/stm32f1xx_hal.c ****       (+) Provide a blocking delay in millisecond
 275:Drivers/STM32Cube_FW_F1_V1.4.0/STM32F1xx_HAL_Driver/Src/stm32f1xx_hal.c ****       (+) Suspend the time base source interrupt
 276:Drivers/STM32Cube_FW_F1_V1.4.0/STM32F1xx_HAL_Driver/Src/stm32f1xx_hal.c ****       (+) Resume the time base source interrupt
 277:Drivers/STM32Cube_FW_F1_V1.4.0/STM32F1xx_HAL_Driver/Src/stm32f1xx_hal.c ****       (+) Get the HAL API driver version
 278:Drivers/STM32Cube_FW_F1_V1.4.0/STM32F1xx_HAL_Driver/Src/stm32f1xx_hal.c ****       (+) Get the device identifier
 279:Drivers/STM32Cube_FW_F1_V1.4.0/STM32F1xx_HAL_Driver/Src/stm32f1xx_hal.c ****       (+) Get the device revision identifier
 280:Drivers/STM32Cube_FW_F1_V1.4.0/STM32F1xx_HAL_Driver/Src/stm32f1xx_hal.c ****       (+) Enable/Disable Debug module during Sleep mode
 281:Drivers/STM32Cube_FW_F1_V1.4.0/STM32F1xx_HAL_Driver/Src/stm32f1xx_hal.c ****       (+) Enable/Disable Debug module during STOP mode
 282:Drivers/STM32Cube_FW_F1_V1.4.0/STM32F1xx_HAL_Driver/Src/stm32f1xx_hal.c ****       (+) Enable/Disable Debug module during STANDBY mode
 283:Drivers/STM32Cube_FW_F1_V1.4.0/STM32F1xx_HAL_Driver/Src/stm32f1xx_hal.c ****       
 284:Drivers/STM32Cube_FW_F1_V1.4.0/STM32F1xx_HAL_Driver/Src/stm32f1xx_hal.c **** @endverbatim
 285:Drivers/STM32Cube_FW_F1_V1.4.0/STM32F1xx_HAL_Driver/Src/stm32f1xx_hal.c ****   * @{
 286:Drivers/STM32Cube_FW_F1_V1.4.0/STM32F1xx_HAL_Driver/Src/stm32f1xx_hal.c ****   */
 287:Drivers/STM32Cube_FW_F1_V1.4.0/STM32F1xx_HAL_Driver/Src/stm32f1xx_hal.c **** 
 288:Drivers/STM32Cube_FW_F1_V1.4.0/STM32F1xx_HAL_Driver/Src/stm32f1xx_hal.c **** /**
 289:Drivers/STM32Cube_FW_F1_V1.4.0/STM32F1xx_HAL_Driver/Src/stm32f1xx_hal.c ****   * @brief This function is called to increment  a global variable "uwTick"
 290:Drivers/STM32Cube_FW_F1_V1.4.0/STM32F1xx_HAL_Driver/Src/stm32f1xx_hal.c ****   *        used as application time base.
 291:Drivers/STM32Cube_FW_F1_V1.4.0/STM32F1xx_HAL_Driver/Src/stm32f1xx_hal.c ****   * @note In the default implementation, this variable is incremented each 1ms
 292:Drivers/STM32Cube_FW_F1_V1.4.0/STM32F1xx_HAL_Driver/Src/stm32f1xx_hal.c ****   *       in Systick ISR.
 293:Drivers/STM32Cube_FW_F1_V1.4.0/STM32F1xx_HAL_Driver/Src/stm32f1xx_hal.c ****   * @note This function is declared as __weak to be overwritten in case of other 
 294:Drivers/STM32Cube_FW_F1_V1.4.0/STM32F1xx_HAL_Driver/Src/stm32f1xx_hal.c ****   *      implementations in user file.
 295:Drivers/STM32Cube_FW_F1_V1.4.0/STM32F1xx_HAL_Driver/Src/stm32f1xx_hal.c ****   * @retval None
 296:Drivers/STM32Cube_FW_F1_V1.4.0/STM32F1xx_HAL_Driver/Src/stm32f1xx_hal.c ****   */
 297:Drivers/STM32Cube_FW_F1_V1.4.0/STM32F1xx_HAL_Driver/Src/stm32f1xx_hal.c **** __weak void HAL_IncTick(void)
 298:Drivers/STM32Cube_FW_F1_V1.4.0/STM32F1xx_HAL_Driver/Src/stm32f1xx_hal.c **** {
 199              		.loc 1 298 0
 200              		.cfi_startproc
 201              		@ args = 0, pretend = 0, frame = 0
 202              		@ frame_needed = 0, uses_anonymous_args = 0
 203              		@ link register save eliminated.
 299:Drivers/STM32Cube_FW_F1_V1.4.0/STM32F1xx_HAL_Driver/Src/stm32f1xx_hal.c ****   uwTick++;
 204              		.loc 1 299 0
 205 0000 024A     		ldr	r2, .L16
 206 0002 1368     		ldr	r3, [r2]
 207 0004 0133     		adds	r3, r3, #1
 208 0006 1360     		str	r3, [r2]
 209 0008 7047     		bx	lr
 210              	.L17:
 211 000a 00BF     		.align	2
ARM GAS  /tmp/ccV4uqBd.s 			page 10


 212              	.L16:
 213 000c 00000000 		.word	.LANCHOR0
 214              		.cfi_endproc
 215              	.LFE69:
 217              		.section	.text.HAL_GetTick,"ax",%progbits
 218              		.align	1
 219              		.weak	HAL_GetTick
 220              		.syntax unified
 221              		.thumb
 222              		.thumb_func
 223              		.fpu softvfp
 225              	HAL_GetTick:
 226              	.LFB70:
 300:Drivers/STM32Cube_FW_F1_V1.4.0/STM32F1xx_HAL_Driver/Src/stm32f1xx_hal.c **** }
 301:Drivers/STM32Cube_FW_F1_V1.4.0/STM32F1xx_HAL_Driver/Src/stm32f1xx_hal.c **** 
 302:Drivers/STM32Cube_FW_F1_V1.4.0/STM32F1xx_HAL_Driver/Src/stm32f1xx_hal.c **** /**
 303:Drivers/STM32Cube_FW_F1_V1.4.0/STM32F1xx_HAL_Driver/Src/stm32f1xx_hal.c ****   * @brief Provides a tick value in millisecond.
 304:Drivers/STM32Cube_FW_F1_V1.4.0/STM32F1xx_HAL_Driver/Src/stm32f1xx_hal.c ****   * @note   This function is declared as __weak  to be overwritten  in case of other 
 305:Drivers/STM32Cube_FW_F1_V1.4.0/STM32F1xx_HAL_Driver/Src/stm32f1xx_hal.c ****   *       implementations in user file.
 306:Drivers/STM32Cube_FW_F1_V1.4.0/STM32F1xx_HAL_Driver/Src/stm32f1xx_hal.c ****   * @retval tick value
 307:Drivers/STM32Cube_FW_F1_V1.4.0/STM32F1xx_HAL_Driver/Src/stm32f1xx_hal.c ****   */
 308:Drivers/STM32Cube_FW_F1_V1.4.0/STM32F1xx_HAL_Driver/Src/stm32f1xx_hal.c **** __weak uint32_t HAL_GetTick(void)
 309:Drivers/STM32Cube_FW_F1_V1.4.0/STM32F1xx_HAL_Driver/Src/stm32f1xx_hal.c **** {
 227              		.loc 1 309 0
 228              		.cfi_startproc
 229              		@ args = 0, pretend = 0, frame = 0
 230              		@ frame_needed = 0, uses_anonymous_args = 0
 231              		@ link register save eliminated.
 310:Drivers/STM32Cube_FW_F1_V1.4.0/STM32F1xx_HAL_Driver/Src/stm32f1xx_hal.c ****   return uwTick;
 232              		.loc 1 310 0
 233 0000 014B     		ldr	r3, .L19
 234 0002 1868     		ldr	r0, [r3]
 311:Drivers/STM32Cube_FW_F1_V1.4.0/STM32F1xx_HAL_Driver/Src/stm32f1xx_hal.c **** }
 235              		.loc 1 311 0
 236 0004 7047     		bx	lr
 237              	.L20:
 238 0006 00BF     		.align	2
 239              	.L19:
 240 0008 00000000 		.word	.LANCHOR0
 241              		.cfi_endproc
 242              	.LFE70:
 244              		.section	.text.HAL_Delay,"ax",%progbits
 245              		.align	1
 246              		.weak	HAL_Delay
 247              		.syntax unified
 248              		.thumb
 249              		.thumb_func
 250              		.fpu softvfp
 252              	HAL_Delay:
 253              	.LFB71:
 312:Drivers/STM32Cube_FW_F1_V1.4.0/STM32F1xx_HAL_Driver/Src/stm32f1xx_hal.c **** 
 313:Drivers/STM32Cube_FW_F1_V1.4.0/STM32F1xx_HAL_Driver/Src/stm32f1xx_hal.c **** /**
 314:Drivers/STM32Cube_FW_F1_V1.4.0/STM32F1xx_HAL_Driver/Src/stm32f1xx_hal.c ****   * @brief This function provides accurate delay (in milliseconds) based 
 315:Drivers/STM32Cube_FW_F1_V1.4.0/STM32F1xx_HAL_Driver/Src/stm32f1xx_hal.c ****   *        on variable incremented.
 316:Drivers/STM32Cube_FW_F1_V1.4.0/STM32F1xx_HAL_Driver/Src/stm32f1xx_hal.c ****   * @note In the default implementation , SysTick timer is the source of time base.
 317:Drivers/STM32Cube_FW_F1_V1.4.0/STM32F1xx_HAL_Driver/Src/stm32f1xx_hal.c ****   *       It is used to generate interrupts at regular time intervals where uwTick
 318:Drivers/STM32Cube_FW_F1_V1.4.0/STM32F1xx_HAL_Driver/Src/stm32f1xx_hal.c ****   *       is incremented.
ARM GAS  /tmp/ccV4uqBd.s 			page 11


 319:Drivers/STM32Cube_FW_F1_V1.4.0/STM32F1xx_HAL_Driver/Src/stm32f1xx_hal.c ****   * @note ThiS function is declared as __weak to be overwritten in case of other
 320:Drivers/STM32Cube_FW_F1_V1.4.0/STM32F1xx_HAL_Driver/Src/stm32f1xx_hal.c ****   *       implementations in user file.
 321:Drivers/STM32Cube_FW_F1_V1.4.0/STM32F1xx_HAL_Driver/Src/stm32f1xx_hal.c ****   * @param Delay: specifies the delay time length, in milliseconds.
 322:Drivers/STM32Cube_FW_F1_V1.4.0/STM32F1xx_HAL_Driver/Src/stm32f1xx_hal.c ****   * @retval None
 323:Drivers/STM32Cube_FW_F1_V1.4.0/STM32F1xx_HAL_Driver/Src/stm32f1xx_hal.c ****   */
 324:Drivers/STM32Cube_FW_F1_V1.4.0/STM32F1xx_HAL_Driver/Src/stm32f1xx_hal.c **** __weak void HAL_Delay(__IO uint32_t Delay)
 325:Drivers/STM32Cube_FW_F1_V1.4.0/STM32F1xx_HAL_Driver/Src/stm32f1xx_hal.c **** {
 254              		.loc 1 325 0
 255              		.cfi_startproc
 256              		@ args = 0, pretend = 0, frame = 8
 257              		@ frame_needed = 0, uses_anonymous_args = 0
 258              	.LVL9:
 259 0000 10B5     		push	{r4, lr}
 260              	.LCFI3:
 261              		.cfi_def_cfa_offset 8
 262              		.cfi_offset 4, -8
 263              		.cfi_offset 14, -4
 264 0002 82B0     		sub	sp, sp, #8
 265              	.LCFI4:
 266              		.cfi_def_cfa_offset 16
 267 0004 0190     		str	r0, [sp, #4]
 268              	.LVL10:
 326:Drivers/STM32Cube_FW_F1_V1.4.0/STM32F1xx_HAL_Driver/Src/stm32f1xx_hal.c ****   uint32_t tickstart = 0;
 327:Drivers/STM32Cube_FW_F1_V1.4.0/STM32F1xx_HAL_Driver/Src/stm32f1xx_hal.c ****   tickstart = HAL_GetTick();
 269              		.loc 1 327 0
 270 0006 FFF7FEFF 		bl	HAL_GetTick
 271              	.LVL11:
 272 000a 0446     		mov	r4, r0
 273              	.LVL12:
 274              	.L22:
 328:Drivers/STM32Cube_FW_F1_V1.4.0/STM32F1xx_HAL_Driver/Src/stm32f1xx_hal.c ****   while((HAL_GetTick() - tickstart) < Delay)
 275              		.loc 1 328 0 discriminator 1
 276 000c FFF7FEFF 		bl	HAL_GetTick
 277              	.LVL13:
 278 0010 001B     		subs	r0, r0, r4
 279 0012 019B     		ldr	r3, [sp, #4]
 280 0014 9842     		cmp	r0, r3
 281 0016 F9D3     		bcc	.L22
 329:Drivers/STM32Cube_FW_F1_V1.4.0/STM32F1xx_HAL_Driver/Src/stm32f1xx_hal.c ****   {
 330:Drivers/STM32Cube_FW_F1_V1.4.0/STM32F1xx_HAL_Driver/Src/stm32f1xx_hal.c ****   }
 331:Drivers/STM32Cube_FW_F1_V1.4.0/STM32F1xx_HAL_Driver/Src/stm32f1xx_hal.c **** }
 282              		.loc 1 331 0
 283 0018 02B0     		add	sp, sp, #8
 284              	.LCFI5:
 285              		.cfi_def_cfa_offset 8
 286              		@ sp needed
 287 001a 10BD     		pop	{r4, pc}
 288              		.cfi_endproc
 289              	.LFE71:
 291              		.section	.text.HAL_SuspendTick,"ax",%progbits
 292              		.align	1
 293              		.weak	HAL_SuspendTick
 294              		.syntax unified
 295              		.thumb
 296              		.thumb_func
 297              		.fpu softvfp
 299              	HAL_SuspendTick:
ARM GAS  /tmp/ccV4uqBd.s 			page 12


 300              	.LFB72:
 332:Drivers/STM32Cube_FW_F1_V1.4.0/STM32F1xx_HAL_Driver/Src/stm32f1xx_hal.c **** 
 333:Drivers/STM32Cube_FW_F1_V1.4.0/STM32F1xx_HAL_Driver/Src/stm32f1xx_hal.c **** /**
 334:Drivers/STM32Cube_FW_F1_V1.4.0/STM32F1xx_HAL_Driver/Src/stm32f1xx_hal.c ****   * @brief Suspend Tick increment.
 335:Drivers/STM32Cube_FW_F1_V1.4.0/STM32F1xx_HAL_Driver/Src/stm32f1xx_hal.c ****   * @note In the default implementation , SysTick timer is the source of time base. It is
 336:Drivers/STM32Cube_FW_F1_V1.4.0/STM32F1xx_HAL_Driver/Src/stm32f1xx_hal.c ****   *       used to generate interrupts at regular time intervals. Once HAL_SuspendTick()
 337:Drivers/STM32Cube_FW_F1_V1.4.0/STM32F1xx_HAL_Driver/Src/stm32f1xx_hal.c ****   *       is called, the the SysTick interrupt will be disabled and so Tick increment 
 338:Drivers/STM32Cube_FW_F1_V1.4.0/STM32F1xx_HAL_Driver/Src/stm32f1xx_hal.c ****   *       is suspended.
 339:Drivers/STM32Cube_FW_F1_V1.4.0/STM32F1xx_HAL_Driver/Src/stm32f1xx_hal.c ****   * @note This function is declared as __weak to be overwritten in case of other
 340:Drivers/STM32Cube_FW_F1_V1.4.0/STM32F1xx_HAL_Driver/Src/stm32f1xx_hal.c ****   *       implementations in user file.
 341:Drivers/STM32Cube_FW_F1_V1.4.0/STM32F1xx_HAL_Driver/Src/stm32f1xx_hal.c ****   * @retval None
 342:Drivers/STM32Cube_FW_F1_V1.4.0/STM32F1xx_HAL_Driver/Src/stm32f1xx_hal.c ****   */
 343:Drivers/STM32Cube_FW_F1_V1.4.0/STM32F1xx_HAL_Driver/Src/stm32f1xx_hal.c **** __weak void HAL_SuspendTick(void)
 344:Drivers/STM32Cube_FW_F1_V1.4.0/STM32F1xx_HAL_Driver/Src/stm32f1xx_hal.c **** {
 301              		.loc 1 344 0
 302              		.cfi_startproc
 303              		@ args = 0, pretend = 0, frame = 0
 304              		@ frame_needed = 0, uses_anonymous_args = 0
 305              		@ link register save eliminated.
 345:Drivers/STM32Cube_FW_F1_V1.4.0/STM32F1xx_HAL_Driver/Src/stm32f1xx_hal.c ****   /* Disable SysTick Interrupt */
 346:Drivers/STM32Cube_FW_F1_V1.4.0/STM32F1xx_HAL_Driver/Src/stm32f1xx_hal.c ****   CLEAR_BIT(SysTick->CTRL,SysTick_CTRL_TICKINT_Msk);
 306              		.loc 1 346 0
 307 0000 024A     		ldr	r2, .L25
 308 0002 1368     		ldr	r3, [r2]
 309 0004 23F00203 		bic	r3, r3, #2
 310 0008 1360     		str	r3, [r2]
 311 000a 7047     		bx	lr
 312              	.L26:
 313              		.align	2
 314              	.L25:
 315 000c 10E000E0 		.word	-536813552
 316              		.cfi_endproc
 317              	.LFE72:
 319              		.section	.text.HAL_ResumeTick,"ax",%progbits
 320              		.align	1
 321              		.weak	HAL_ResumeTick
 322              		.syntax unified
 323              		.thumb
 324              		.thumb_func
 325              		.fpu softvfp
 327              	HAL_ResumeTick:
 328              	.LFB73:
 347:Drivers/STM32Cube_FW_F1_V1.4.0/STM32F1xx_HAL_Driver/Src/stm32f1xx_hal.c **** }
 348:Drivers/STM32Cube_FW_F1_V1.4.0/STM32F1xx_HAL_Driver/Src/stm32f1xx_hal.c **** 
 349:Drivers/STM32Cube_FW_F1_V1.4.0/STM32F1xx_HAL_Driver/Src/stm32f1xx_hal.c **** /**
 350:Drivers/STM32Cube_FW_F1_V1.4.0/STM32F1xx_HAL_Driver/Src/stm32f1xx_hal.c ****   * @brief Resume Tick increment.
 351:Drivers/STM32Cube_FW_F1_V1.4.0/STM32F1xx_HAL_Driver/Src/stm32f1xx_hal.c ****   * @note In the default implementation , SysTick timer is the source of time base. It is
 352:Drivers/STM32Cube_FW_F1_V1.4.0/STM32F1xx_HAL_Driver/Src/stm32f1xx_hal.c ****   *       used to generate interrupts at regular time intervals. Once HAL_ResumeTick()
 353:Drivers/STM32Cube_FW_F1_V1.4.0/STM32F1xx_HAL_Driver/Src/stm32f1xx_hal.c ****   *       is called, the the SysTick interrupt will be enabled and so Tick increment 
 354:Drivers/STM32Cube_FW_F1_V1.4.0/STM32F1xx_HAL_Driver/Src/stm32f1xx_hal.c ****   *       is resumed.
 355:Drivers/STM32Cube_FW_F1_V1.4.0/STM32F1xx_HAL_Driver/Src/stm32f1xx_hal.c ****   * @note This function is declared as __weak  to be overwritten  in case of other
 356:Drivers/STM32Cube_FW_F1_V1.4.0/STM32F1xx_HAL_Driver/Src/stm32f1xx_hal.c ****   *       implementations in user file.
 357:Drivers/STM32Cube_FW_F1_V1.4.0/STM32F1xx_HAL_Driver/Src/stm32f1xx_hal.c ****   * @retval None
 358:Drivers/STM32Cube_FW_F1_V1.4.0/STM32F1xx_HAL_Driver/Src/stm32f1xx_hal.c ****   */
 359:Drivers/STM32Cube_FW_F1_V1.4.0/STM32F1xx_HAL_Driver/Src/stm32f1xx_hal.c **** __weak void HAL_ResumeTick(void)
 360:Drivers/STM32Cube_FW_F1_V1.4.0/STM32F1xx_HAL_Driver/Src/stm32f1xx_hal.c **** {
 329              		.loc 1 360 0
ARM GAS  /tmp/ccV4uqBd.s 			page 13


 330              		.cfi_startproc
 331              		@ args = 0, pretend = 0, frame = 0
 332              		@ frame_needed = 0, uses_anonymous_args = 0
 333              		@ link register save eliminated.
 361:Drivers/STM32Cube_FW_F1_V1.4.0/STM32F1xx_HAL_Driver/Src/stm32f1xx_hal.c ****   /* Enable SysTick Interrupt */
 362:Drivers/STM32Cube_FW_F1_V1.4.0/STM32F1xx_HAL_Driver/Src/stm32f1xx_hal.c ****   SET_BIT(SysTick->CTRL,SysTick_CTRL_TICKINT_Msk);
 334              		.loc 1 362 0
 335 0000 024A     		ldr	r2, .L28
 336 0002 1368     		ldr	r3, [r2]
 337 0004 43F00203 		orr	r3, r3, #2
 338 0008 1360     		str	r3, [r2]
 339 000a 7047     		bx	lr
 340              	.L29:
 341              		.align	2
 342              	.L28:
 343 000c 10E000E0 		.word	-536813552
 344              		.cfi_endproc
 345              	.LFE73:
 347              		.section	.text.HAL_GetHalVersion,"ax",%progbits
 348              		.align	1
 349              		.global	HAL_GetHalVersion
 350              		.syntax unified
 351              		.thumb
 352              		.thumb_func
 353              		.fpu softvfp
 355              	HAL_GetHalVersion:
 356              	.LFB74:
 363:Drivers/STM32Cube_FW_F1_V1.4.0/STM32F1xx_HAL_Driver/Src/stm32f1xx_hal.c **** }
 364:Drivers/STM32Cube_FW_F1_V1.4.0/STM32F1xx_HAL_Driver/Src/stm32f1xx_hal.c **** 
 365:Drivers/STM32Cube_FW_F1_V1.4.0/STM32F1xx_HAL_Driver/Src/stm32f1xx_hal.c **** /**
 366:Drivers/STM32Cube_FW_F1_V1.4.0/STM32F1xx_HAL_Driver/Src/stm32f1xx_hal.c ****   * @brief  This method returns the HAL revision
 367:Drivers/STM32Cube_FW_F1_V1.4.0/STM32F1xx_HAL_Driver/Src/stm32f1xx_hal.c ****   * @retval version: 0xXYZR (8bits for each decimal, R for RC)
 368:Drivers/STM32Cube_FW_F1_V1.4.0/STM32F1xx_HAL_Driver/Src/stm32f1xx_hal.c ****   */
 369:Drivers/STM32Cube_FW_F1_V1.4.0/STM32F1xx_HAL_Driver/Src/stm32f1xx_hal.c **** uint32_t HAL_GetHalVersion(void)
 370:Drivers/STM32Cube_FW_F1_V1.4.0/STM32F1xx_HAL_Driver/Src/stm32f1xx_hal.c **** {
 357              		.loc 1 370 0
 358              		.cfi_startproc
 359              		@ args = 0, pretend = 0, frame = 0
 360              		@ frame_needed = 0, uses_anonymous_args = 0
 361              		@ link register save eliminated.
 371:Drivers/STM32Cube_FW_F1_V1.4.0/STM32F1xx_HAL_Driver/Src/stm32f1xx_hal.c ****  return __STM32F1xx_HAL_VERSION;
 372:Drivers/STM32Cube_FW_F1_V1.4.0/STM32F1xx_HAL_Driver/Src/stm32f1xx_hal.c **** }
 362              		.loc 1 372 0
 363 0000 0048     		ldr	r0, .L31
 364 0002 7047     		bx	lr
 365              	.L32:
 366              		.align	2
 367              	.L31:
 368 0004 00040001 		.word	16778240
 369              		.cfi_endproc
 370              	.LFE74:
 372              		.section	.text.HAL_GetREVID,"ax",%progbits
 373              		.align	1
 374              		.global	HAL_GetREVID
 375              		.syntax unified
 376              		.thumb
 377              		.thumb_func
ARM GAS  /tmp/ccV4uqBd.s 			page 14


 378              		.fpu softvfp
 380              	HAL_GetREVID:
 381              	.LFB75:
 373:Drivers/STM32Cube_FW_F1_V1.4.0/STM32F1xx_HAL_Driver/Src/stm32f1xx_hal.c **** 
 374:Drivers/STM32Cube_FW_F1_V1.4.0/STM32F1xx_HAL_Driver/Src/stm32f1xx_hal.c **** /**
 375:Drivers/STM32Cube_FW_F1_V1.4.0/STM32F1xx_HAL_Driver/Src/stm32f1xx_hal.c ****   * @brief Returns the device revision identifier.
 376:Drivers/STM32Cube_FW_F1_V1.4.0/STM32F1xx_HAL_Driver/Src/stm32f1xx_hal.c ****   * Note: On devices STM32F10xx8 and STM32F10xxB,
 377:Drivers/STM32Cube_FW_F1_V1.4.0/STM32F1xx_HAL_Driver/Src/stm32f1xx_hal.c ****   *                  STM32F101xC/D/E and STM32F103xC/D/E,
 378:Drivers/STM32Cube_FW_F1_V1.4.0/STM32F1xx_HAL_Driver/Src/stm32f1xx_hal.c ****   *                  STM32F101xF/G and STM32F103xF/G
 379:Drivers/STM32Cube_FW_F1_V1.4.0/STM32F1xx_HAL_Driver/Src/stm32f1xx_hal.c ****   *                  STM32F10xx4 and STM32F10xx6
 380:Drivers/STM32Cube_FW_F1_V1.4.0/STM32F1xx_HAL_Driver/Src/stm32f1xx_hal.c ****   *       Debug registers DBGMCU_IDCODE and DBGMCU_CR are accessible only in 
 381:Drivers/STM32Cube_FW_F1_V1.4.0/STM32F1xx_HAL_Driver/Src/stm32f1xx_hal.c ****   *       debug mode (not accessible by the user software in normal mode).
 382:Drivers/STM32Cube_FW_F1_V1.4.0/STM32F1xx_HAL_Driver/Src/stm32f1xx_hal.c ****   *       Refer to errata sheet of these devices for more details.
 383:Drivers/STM32Cube_FW_F1_V1.4.0/STM32F1xx_HAL_Driver/Src/stm32f1xx_hal.c ****   * @retval Device revision identifier
 384:Drivers/STM32Cube_FW_F1_V1.4.0/STM32F1xx_HAL_Driver/Src/stm32f1xx_hal.c ****   */
 385:Drivers/STM32Cube_FW_F1_V1.4.0/STM32F1xx_HAL_Driver/Src/stm32f1xx_hal.c **** uint32_t HAL_GetREVID(void)
 386:Drivers/STM32Cube_FW_F1_V1.4.0/STM32F1xx_HAL_Driver/Src/stm32f1xx_hal.c **** {
 382              		.loc 1 386 0
 383              		.cfi_startproc
 384              		@ args = 0, pretend = 0, frame = 0
 385              		@ frame_needed = 0, uses_anonymous_args = 0
 386              		@ link register save eliminated.
 387:Drivers/STM32Cube_FW_F1_V1.4.0/STM32F1xx_HAL_Driver/Src/stm32f1xx_hal.c ****   return((DBGMCU->IDCODE) >> POSITION_VAL(DBGMCU_IDCODE_REV_ID));
 387              		.loc 1 387 0
 388 0000 044B     		ldr	r3, .L34
 389 0002 1868     		ldr	r0, [r3]
 390              	.LVL14:
 391              	.LBB4:
 392              	.LBB5:
 393              		.file 2 "Drivers/STM32Cube_FW_F1_V1.4.0/CMSIS/Include/cmsis_gcc.h"
   1:Drivers/STM32Cube_FW_F1_V1.4.0/CMSIS/Include/cmsis_gcc.h **** /**************************************************************************//**
   2:Drivers/STM32Cube_FW_F1_V1.4.0/CMSIS/Include/cmsis_gcc.h ****  * @file     cmsis_gcc.h
   3:Drivers/STM32Cube_FW_F1_V1.4.0/CMSIS/Include/cmsis_gcc.h ****  * @brief    CMSIS Cortex-M Core Function/Instruction Header File
   4:Drivers/STM32Cube_FW_F1_V1.4.0/CMSIS/Include/cmsis_gcc.h ****  * @version  V4.30
   5:Drivers/STM32Cube_FW_F1_V1.4.0/CMSIS/Include/cmsis_gcc.h ****  * @date     20. October 2015
   6:Drivers/STM32Cube_FW_F1_V1.4.0/CMSIS/Include/cmsis_gcc.h ****  ******************************************************************************/
   7:Drivers/STM32Cube_FW_F1_V1.4.0/CMSIS/Include/cmsis_gcc.h **** /* Copyright (c) 2009 - 2015 ARM LIMITED
   8:Drivers/STM32Cube_FW_F1_V1.4.0/CMSIS/Include/cmsis_gcc.h **** 
   9:Drivers/STM32Cube_FW_F1_V1.4.0/CMSIS/Include/cmsis_gcc.h ****    All rights reserved.
  10:Drivers/STM32Cube_FW_F1_V1.4.0/CMSIS/Include/cmsis_gcc.h ****    Redistribution and use in source and binary forms, with or without
  11:Drivers/STM32Cube_FW_F1_V1.4.0/CMSIS/Include/cmsis_gcc.h ****    modification, are permitted provided that the following conditions are met:
  12:Drivers/STM32Cube_FW_F1_V1.4.0/CMSIS/Include/cmsis_gcc.h ****    - Redistributions of source code must retain the above copyright
  13:Drivers/STM32Cube_FW_F1_V1.4.0/CMSIS/Include/cmsis_gcc.h ****      notice, this list of conditions and the following disclaimer.
  14:Drivers/STM32Cube_FW_F1_V1.4.0/CMSIS/Include/cmsis_gcc.h ****    - Redistributions in binary form must reproduce the above copyright
  15:Drivers/STM32Cube_FW_F1_V1.4.0/CMSIS/Include/cmsis_gcc.h ****      notice, this list of conditions and the following disclaimer in the
  16:Drivers/STM32Cube_FW_F1_V1.4.0/CMSIS/Include/cmsis_gcc.h ****      documentation and/or other materials provided with the distribution.
  17:Drivers/STM32Cube_FW_F1_V1.4.0/CMSIS/Include/cmsis_gcc.h ****    - Neither the name of ARM nor the names of its contributors may be used
  18:Drivers/STM32Cube_FW_F1_V1.4.0/CMSIS/Include/cmsis_gcc.h ****      to endorse or promote products derived from this software without
  19:Drivers/STM32Cube_FW_F1_V1.4.0/CMSIS/Include/cmsis_gcc.h ****      specific prior written permission.
  20:Drivers/STM32Cube_FW_F1_V1.4.0/CMSIS/Include/cmsis_gcc.h ****    *
  21:Drivers/STM32Cube_FW_F1_V1.4.0/CMSIS/Include/cmsis_gcc.h ****    THIS SOFTWARE IS PROVIDED BY THE COPYRIGHT HOLDERS AND CONTRIBUTORS "AS IS"
  22:Drivers/STM32Cube_FW_F1_V1.4.0/CMSIS/Include/cmsis_gcc.h ****    AND ANY EXPRESS OR IMPLIED WARRANTIES, INCLUDING, BUT NOT LIMITED TO, THE
  23:Drivers/STM32Cube_FW_F1_V1.4.0/CMSIS/Include/cmsis_gcc.h ****    IMPLIED WARRANTIES OF MERCHANTABILITY AND FITNESS FOR A PARTICULAR PURPOSE
  24:Drivers/STM32Cube_FW_F1_V1.4.0/CMSIS/Include/cmsis_gcc.h ****    ARE DISCLAIMED. IN NO EVENT SHALL COPYRIGHT HOLDERS AND CONTRIBUTORS BE
  25:Drivers/STM32Cube_FW_F1_V1.4.0/CMSIS/Include/cmsis_gcc.h ****    LIABLE FOR ANY DIRECT, INDIRECT, INCIDENTAL, SPECIAL, EXEMPLARY, OR
  26:Drivers/STM32Cube_FW_F1_V1.4.0/CMSIS/Include/cmsis_gcc.h ****    CONSEQUENTIAL DAMAGES (INCLUDING, BUT NOT LIMITED TO, PROCUREMENT OF
  27:Drivers/STM32Cube_FW_F1_V1.4.0/CMSIS/Include/cmsis_gcc.h ****    SUBSTITUTE GOODS OR SERVICES; LOSS OF USE, DATA, OR PROFITS; OR BUSINESS
ARM GAS  /tmp/ccV4uqBd.s 			page 15


  28:Drivers/STM32Cube_FW_F1_V1.4.0/CMSIS/Include/cmsis_gcc.h ****    INTERRUPTION) HOWEVER CAUSED AND ON ANY THEORY OF LIABILITY, WHETHER IN
  29:Drivers/STM32Cube_FW_F1_V1.4.0/CMSIS/Include/cmsis_gcc.h ****    CONTRACT, STRICT LIABILITY, OR TORT (INCLUDING NEGLIGENCE OR OTHERWISE)
  30:Drivers/STM32Cube_FW_F1_V1.4.0/CMSIS/Include/cmsis_gcc.h ****    ARISING IN ANY WAY OUT OF THE USE OF THIS SOFTWARE, EVEN IF ADVISED OF THE
  31:Drivers/STM32Cube_FW_F1_V1.4.0/CMSIS/Include/cmsis_gcc.h ****    POSSIBILITY OF SUCH DAMAGE.
  32:Drivers/STM32Cube_FW_F1_V1.4.0/CMSIS/Include/cmsis_gcc.h ****    ---------------------------------------------------------------------------*/
  33:Drivers/STM32Cube_FW_F1_V1.4.0/CMSIS/Include/cmsis_gcc.h **** 
  34:Drivers/STM32Cube_FW_F1_V1.4.0/CMSIS/Include/cmsis_gcc.h **** 
  35:Drivers/STM32Cube_FW_F1_V1.4.0/CMSIS/Include/cmsis_gcc.h **** #ifndef __CMSIS_GCC_H
  36:Drivers/STM32Cube_FW_F1_V1.4.0/CMSIS/Include/cmsis_gcc.h **** #define __CMSIS_GCC_H
  37:Drivers/STM32Cube_FW_F1_V1.4.0/CMSIS/Include/cmsis_gcc.h **** 
  38:Drivers/STM32Cube_FW_F1_V1.4.0/CMSIS/Include/cmsis_gcc.h **** /* ignore some GCC warnings */
  39:Drivers/STM32Cube_FW_F1_V1.4.0/CMSIS/Include/cmsis_gcc.h **** #if defined ( __GNUC__ )
  40:Drivers/STM32Cube_FW_F1_V1.4.0/CMSIS/Include/cmsis_gcc.h **** #pragma GCC diagnostic push
  41:Drivers/STM32Cube_FW_F1_V1.4.0/CMSIS/Include/cmsis_gcc.h **** #pragma GCC diagnostic ignored "-Wsign-conversion"
  42:Drivers/STM32Cube_FW_F1_V1.4.0/CMSIS/Include/cmsis_gcc.h **** #pragma GCC diagnostic ignored "-Wconversion"
  43:Drivers/STM32Cube_FW_F1_V1.4.0/CMSIS/Include/cmsis_gcc.h **** #pragma GCC diagnostic ignored "-Wunused-parameter"
  44:Drivers/STM32Cube_FW_F1_V1.4.0/CMSIS/Include/cmsis_gcc.h **** #endif
  45:Drivers/STM32Cube_FW_F1_V1.4.0/CMSIS/Include/cmsis_gcc.h **** 
  46:Drivers/STM32Cube_FW_F1_V1.4.0/CMSIS/Include/cmsis_gcc.h **** 
  47:Drivers/STM32Cube_FW_F1_V1.4.0/CMSIS/Include/cmsis_gcc.h **** /* ###########################  Core Function Access  ########################### */
  48:Drivers/STM32Cube_FW_F1_V1.4.0/CMSIS/Include/cmsis_gcc.h **** /** \ingroup  CMSIS_Core_FunctionInterface
  49:Drivers/STM32Cube_FW_F1_V1.4.0/CMSIS/Include/cmsis_gcc.h ****     \defgroup CMSIS_Core_RegAccFunctions CMSIS Core Register Access Functions
  50:Drivers/STM32Cube_FW_F1_V1.4.0/CMSIS/Include/cmsis_gcc.h ****   @{
  51:Drivers/STM32Cube_FW_F1_V1.4.0/CMSIS/Include/cmsis_gcc.h ****  */
  52:Drivers/STM32Cube_FW_F1_V1.4.0/CMSIS/Include/cmsis_gcc.h **** 
  53:Drivers/STM32Cube_FW_F1_V1.4.0/CMSIS/Include/cmsis_gcc.h **** /**
  54:Drivers/STM32Cube_FW_F1_V1.4.0/CMSIS/Include/cmsis_gcc.h ****   \brief   Enable IRQ Interrupts
  55:Drivers/STM32Cube_FW_F1_V1.4.0/CMSIS/Include/cmsis_gcc.h ****   \details Enables IRQ interrupts by clearing the I-bit in the CPSR.
  56:Drivers/STM32Cube_FW_F1_V1.4.0/CMSIS/Include/cmsis_gcc.h ****            Can only be executed in Privileged modes.
  57:Drivers/STM32Cube_FW_F1_V1.4.0/CMSIS/Include/cmsis_gcc.h ****  */
  58:Drivers/STM32Cube_FW_F1_V1.4.0/CMSIS/Include/cmsis_gcc.h **** __attribute__( ( always_inline ) ) __STATIC_INLINE void __enable_irq(void)
  59:Drivers/STM32Cube_FW_F1_V1.4.0/CMSIS/Include/cmsis_gcc.h **** {
  60:Drivers/STM32Cube_FW_F1_V1.4.0/CMSIS/Include/cmsis_gcc.h ****   __ASM volatile ("cpsie i" : : : "memory");
  61:Drivers/STM32Cube_FW_F1_V1.4.0/CMSIS/Include/cmsis_gcc.h **** }
  62:Drivers/STM32Cube_FW_F1_V1.4.0/CMSIS/Include/cmsis_gcc.h **** 
  63:Drivers/STM32Cube_FW_F1_V1.4.0/CMSIS/Include/cmsis_gcc.h **** 
  64:Drivers/STM32Cube_FW_F1_V1.4.0/CMSIS/Include/cmsis_gcc.h **** /**
  65:Drivers/STM32Cube_FW_F1_V1.4.0/CMSIS/Include/cmsis_gcc.h ****   \brief   Disable IRQ Interrupts
  66:Drivers/STM32Cube_FW_F1_V1.4.0/CMSIS/Include/cmsis_gcc.h ****   \details Disables IRQ interrupts by setting the I-bit in the CPSR.
  67:Drivers/STM32Cube_FW_F1_V1.4.0/CMSIS/Include/cmsis_gcc.h ****   Can only be executed in Privileged modes.
  68:Drivers/STM32Cube_FW_F1_V1.4.0/CMSIS/Include/cmsis_gcc.h ****  */
  69:Drivers/STM32Cube_FW_F1_V1.4.0/CMSIS/Include/cmsis_gcc.h **** __attribute__( ( always_inline ) ) __STATIC_INLINE void __disable_irq(void)
  70:Drivers/STM32Cube_FW_F1_V1.4.0/CMSIS/Include/cmsis_gcc.h **** {
  71:Drivers/STM32Cube_FW_F1_V1.4.0/CMSIS/Include/cmsis_gcc.h ****   __ASM volatile ("cpsid i" : : : "memory");
  72:Drivers/STM32Cube_FW_F1_V1.4.0/CMSIS/Include/cmsis_gcc.h **** }
  73:Drivers/STM32Cube_FW_F1_V1.4.0/CMSIS/Include/cmsis_gcc.h **** 
  74:Drivers/STM32Cube_FW_F1_V1.4.0/CMSIS/Include/cmsis_gcc.h **** 
  75:Drivers/STM32Cube_FW_F1_V1.4.0/CMSIS/Include/cmsis_gcc.h **** /**
  76:Drivers/STM32Cube_FW_F1_V1.4.0/CMSIS/Include/cmsis_gcc.h ****   \brief   Get Control Register
  77:Drivers/STM32Cube_FW_F1_V1.4.0/CMSIS/Include/cmsis_gcc.h ****   \details Returns the content of the Control Register.
  78:Drivers/STM32Cube_FW_F1_V1.4.0/CMSIS/Include/cmsis_gcc.h ****   \return               Control Register value
  79:Drivers/STM32Cube_FW_F1_V1.4.0/CMSIS/Include/cmsis_gcc.h ****  */
  80:Drivers/STM32Cube_FW_F1_V1.4.0/CMSIS/Include/cmsis_gcc.h **** __attribute__( ( always_inline ) ) __STATIC_INLINE uint32_t __get_CONTROL(void)
  81:Drivers/STM32Cube_FW_F1_V1.4.0/CMSIS/Include/cmsis_gcc.h **** {
  82:Drivers/STM32Cube_FW_F1_V1.4.0/CMSIS/Include/cmsis_gcc.h ****   uint32_t result;
  83:Drivers/STM32Cube_FW_F1_V1.4.0/CMSIS/Include/cmsis_gcc.h **** 
  84:Drivers/STM32Cube_FW_F1_V1.4.0/CMSIS/Include/cmsis_gcc.h ****   __ASM volatile ("MRS %0, control" : "=r" (result) );
ARM GAS  /tmp/ccV4uqBd.s 			page 16


  85:Drivers/STM32Cube_FW_F1_V1.4.0/CMSIS/Include/cmsis_gcc.h ****   return(result);
  86:Drivers/STM32Cube_FW_F1_V1.4.0/CMSIS/Include/cmsis_gcc.h **** }
  87:Drivers/STM32Cube_FW_F1_V1.4.0/CMSIS/Include/cmsis_gcc.h **** 
  88:Drivers/STM32Cube_FW_F1_V1.4.0/CMSIS/Include/cmsis_gcc.h **** 
  89:Drivers/STM32Cube_FW_F1_V1.4.0/CMSIS/Include/cmsis_gcc.h **** /**
  90:Drivers/STM32Cube_FW_F1_V1.4.0/CMSIS/Include/cmsis_gcc.h ****   \brief   Set Control Register
  91:Drivers/STM32Cube_FW_F1_V1.4.0/CMSIS/Include/cmsis_gcc.h ****   \details Writes the given value to the Control Register.
  92:Drivers/STM32Cube_FW_F1_V1.4.0/CMSIS/Include/cmsis_gcc.h ****   \param [in]    control  Control Register value to set
  93:Drivers/STM32Cube_FW_F1_V1.4.0/CMSIS/Include/cmsis_gcc.h ****  */
  94:Drivers/STM32Cube_FW_F1_V1.4.0/CMSIS/Include/cmsis_gcc.h **** __attribute__( ( always_inline ) ) __STATIC_INLINE void __set_CONTROL(uint32_t control)
  95:Drivers/STM32Cube_FW_F1_V1.4.0/CMSIS/Include/cmsis_gcc.h **** {
  96:Drivers/STM32Cube_FW_F1_V1.4.0/CMSIS/Include/cmsis_gcc.h ****   __ASM volatile ("MSR control, %0" : : "r" (control) : "memory");
  97:Drivers/STM32Cube_FW_F1_V1.4.0/CMSIS/Include/cmsis_gcc.h **** }
  98:Drivers/STM32Cube_FW_F1_V1.4.0/CMSIS/Include/cmsis_gcc.h **** 
  99:Drivers/STM32Cube_FW_F1_V1.4.0/CMSIS/Include/cmsis_gcc.h **** 
 100:Drivers/STM32Cube_FW_F1_V1.4.0/CMSIS/Include/cmsis_gcc.h **** /**
 101:Drivers/STM32Cube_FW_F1_V1.4.0/CMSIS/Include/cmsis_gcc.h ****   \brief   Get IPSR Register
 102:Drivers/STM32Cube_FW_F1_V1.4.0/CMSIS/Include/cmsis_gcc.h ****   \details Returns the content of the IPSR Register.
 103:Drivers/STM32Cube_FW_F1_V1.4.0/CMSIS/Include/cmsis_gcc.h ****   \return               IPSR Register value
 104:Drivers/STM32Cube_FW_F1_V1.4.0/CMSIS/Include/cmsis_gcc.h ****  */
 105:Drivers/STM32Cube_FW_F1_V1.4.0/CMSIS/Include/cmsis_gcc.h **** __attribute__( ( always_inline ) ) __STATIC_INLINE uint32_t __get_IPSR(void)
 106:Drivers/STM32Cube_FW_F1_V1.4.0/CMSIS/Include/cmsis_gcc.h **** {
 107:Drivers/STM32Cube_FW_F1_V1.4.0/CMSIS/Include/cmsis_gcc.h ****   uint32_t result;
 108:Drivers/STM32Cube_FW_F1_V1.4.0/CMSIS/Include/cmsis_gcc.h **** 
 109:Drivers/STM32Cube_FW_F1_V1.4.0/CMSIS/Include/cmsis_gcc.h ****   __ASM volatile ("MRS %0, ipsr" : "=r" (result) );
 110:Drivers/STM32Cube_FW_F1_V1.4.0/CMSIS/Include/cmsis_gcc.h ****   return(result);
 111:Drivers/STM32Cube_FW_F1_V1.4.0/CMSIS/Include/cmsis_gcc.h **** }
 112:Drivers/STM32Cube_FW_F1_V1.4.0/CMSIS/Include/cmsis_gcc.h **** 
 113:Drivers/STM32Cube_FW_F1_V1.4.0/CMSIS/Include/cmsis_gcc.h **** 
 114:Drivers/STM32Cube_FW_F1_V1.4.0/CMSIS/Include/cmsis_gcc.h **** /**
 115:Drivers/STM32Cube_FW_F1_V1.4.0/CMSIS/Include/cmsis_gcc.h ****   \brief   Get APSR Register
 116:Drivers/STM32Cube_FW_F1_V1.4.0/CMSIS/Include/cmsis_gcc.h ****   \details Returns the content of the APSR Register.
 117:Drivers/STM32Cube_FW_F1_V1.4.0/CMSIS/Include/cmsis_gcc.h ****   \return               APSR Register value
 118:Drivers/STM32Cube_FW_F1_V1.4.0/CMSIS/Include/cmsis_gcc.h ****  */
 119:Drivers/STM32Cube_FW_F1_V1.4.0/CMSIS/Include/cmsis_gcc.h **** __attribute__( ( always_inline ) ) __STATIC_INLINE uint32_t __get_APSR(void)
 120:Drivers/STM32Cube_FW_F1_V1.4.0/CMSIS/Include/cmsis_gcc.h **** {
 121:Drivers/STM32Cube_FW_F1_V1.4.0/CMSIS/Include/cmsis_gcc.h ****   uint32_t result;
 122:Drivers/STM32Cube_FW_F1_V1.4.0/CMSIS/Include/cmsis_gcc.h **** 
 123:Drivers/STM32Cube_FW_F1_V1.4.0/CMSIS/Include/cmsis_gcc.h ****   __ASM volatile ("MRS %0, apsr" : "=r" (result) );
 124:Drivers/STM32Cube_FW_F1_V1.4.0/CMSIS/Include/cmsis_gcc.h ****   return(result);
 125:Drivers/STM32Cube_FW_F1_V1.4.0/CMSIS/Include/cmsis_gcc.h **** }
 126:Drivers/STM32Cube_FW_F1_V1.4.0/CMSIS/Include/cmsis_gcc.h **** 
 127:Drivers/STM32Cube_FW_F1_V1.4.0/CMSIS/Include/cmsis_gcc.h **** 
 128:Drivers/STM32Cube_FW_F1_V1.4.0/CMSIS/Include/cmsis_gcc.h **** /**
 129:Drivers/STM32Cube_FW_F1_V1.4.0/CMSIS/Include/cmsis_gcc.h ****   \brief   Get xPSR Register
 130:Drivers/STM32Cube_FW_F1_V1.4.0/CMSIS/Include/cmsis_gcc.h ****   \details Returns the content of the xPSR Register.
 131:Drivers/STM32Cube_FW_F1_V1.4.0/CMSIS/Include/cmsis_gcc.h **** 
 132:Drivers/STM32Cube_FW_F1_V1.4.0/CMSIS/Include/cmsis_gcc.h ****     \return               xPSR Register value
 133:Drivers/STM32Cube_FW_F1_V1.4.0/CMSIS/Include/cmsis_gcc.h ****  */
 134:Drivers/STM32Cube_FW_F1_V1.4.0/CMSIS/Include/cmsis_gcc.h **** __attribute__( ( always_inline ) ) __STATIC_INLINE uint32_t __get_xPSR(void)
 135:Drivers/STM32Cube_FW_F1_V1.4.0/CMSIS/Include/cmsis_gcc.h **** {
 136:Drivers/STM32Cube_FW_F1_V1.4.0/CMSIS/Include/cmsis_gcc.h ****   uint32_t result;
 137:Drivers/STM32Cube_FW_F1_V1.4.0/CMSIS/Include/cmsis_gcc.h **** 
 138:Drivers/STM32Cube_FW_F1_V1.4.0/CMSIS/Include/cmsis_gcc.h ****   __ASM volatile ("MRS %0, xpsr" : "=r" (result) );
 139:Drivers/STM32Cube_FW_F1_V1.4.0/CMSIS/Include/cmsis_gcc.h ****   return(result);
 140:Drivers/STM32Cube_FW_F1_V1.4.0/CMSIS/Include/cmsis_gcc.h **** }
 141:Drivers/STM32Cube_FW_F1_V1.4.0/CMSIS/Include/cmsis_gcc.h **** 
ARM GAS  /tmp/ccV4uqBd.s 			page 17


 142:Drivers/STM32Cube_FW_F1_V1.4.0/CMSIS/Include/cmsis_gcc.h **** 
 143:Drivers/STM32Cube_FW_F1_V1.4.0/CMSIS/Include/cmsis_gcc.h **** /**
 144:Drivers/STM32Cube_FW_F1_V1.4.0/CMSIS/Include/cmsis_gcc.h ****   \brief   Get Process Stack Pointer
 145:Drivers/STM32Cube_FW_F1_V1.4.0/CMSIS/Include/cmsis_gcc.h ****   \details Returns the current value of the Process Stack Pointer (PSP).
 146:Drivers/STM32Cube_FW_F1_V1.4.0/CMSIS/Include/cmsis_gcc.h ****   \return               PSP Register value
 147:Drivers/STM32Cube_FW_F1_V1.4.0/CMSIS/Include/cmsis_gcc.h ****  */
 148:Drivers/STM32Cube_FW_F1_V1.4.0/CMSIS/Include/cmsis_gcc.h **** __attribute__( ( always_inline ) ) __STATIC_INLINE uint32_t __get_PSP(void)
 149:Drivers/STM32Cube_FW_F1_V1.4.0/CMSIS/Include/cmsis_gcc.h **** {
 150:Drivers/STM32Cube_FW_F1_V1.4.0/CMSIS/Include/cmsis_gcc.h ****   register uint32_t result;
 151:Drivers/STM32Cube_FW_F1_V1.4.0/CMSIS/Include/cmsis_gcc.h **** 
 152:Drivers/STM32Cube_FW_F1_V1.4.0/CMSIS/Include/cmsis_gcc.h ****   __ASM volatile ("MRS %0, psp\n"  : "=r" (result) );
 153:Drivers/STM32Cube_FW_F1_V1.4.0/CMSIS/Include/cmsis_gcc.h ****   return(result);
 154:Drivers/STM32Cube_FW_F1_V1.4.0/CMSIS/Include/cmsis_gcc.h **** }
 155:Drivers/STM32Cube_FW_F1_V1.4.0/CMSIS/Include/cmsis_gcc.h **** 
 156:Drivers/STM32Cube_FW_F1_V1.4.0/CMSIS/Include/cmsis_gcc.h **** 
 157:Drivers/STM32Cube_FW_F1_V1.4.0/CMSIS/Include/cmsis_gcc.h **** /**
 158:Drivers/STM32Cube_FW_F1_V1.4.0/CMSIS/Include/cmsis_gcc.h ****   \brief   Set Process Stack Pointer
 159:Drivers/STM32Cube_FW_F1_V1.4.0/CMSIS/Include/cmsis_gcc.h ****   \details Assigns the given value to the Process Stack Pointer (PSP).
 160:Drivers/STM32Cube_FW_F1_V1.4.0/CMSIS/Include/cmsis_gcc.h ****   \param [in]    topOfProcStack  Process Stack Pointer value to set
 161:Drivers/STM32Cube_FW_F1_V1.4.0/CMSIS/Include/cmsis_gcc.h ****  */
 162:Drivers/STM32Cube_FW_F1_V1.4.0/CMSIS/Include/cmsis_gcc.h **** __attribute__( ( always_inline ) ) __STATIC_INLINE void __set_PSP(uint32_t topOfProcStack)
 163:Drivers/STM32Cube_FW_F1_V1.4.0/CMSIS/Include/cmsis_gcc.h **** {
 164:Drivers/STM32Cube_FW_F1_V1.4.0/CMSIS/Include/cmsis_gcc.h ****   __ASM volatile ("MSR psp, %0\n" : : "r" (topOfProcStack) : "sp");
 165:Drivers/STM32Cube_FW_F1_V1.4.0/CMSIS/Include/cmsis_gcc.h **** }
 166:Drivers/STM32Cube_FW_F1_V1.4.0/CMSIS/Include/cmsis_gcc.h **** 
 167:Drivers/STM32Cube_FW_F1_V1.4.0/CMSIS/Include/cmsis_gcc.h **** 
 168:Drivers/STM32Cube_FW_F1_V1.4.0/CMSIS/Include/cmsis_gcc.h **** /**
 169:Drivers/STM32Cube_FW_F1_V1.4.0/CMSIS/Include/cmsis_gcc.h ****   \brief   Get Main Stack Pointer
 170:Drivers/STM32Cube_FW_F1_V1.4.0/CMSIS/Include/cmsis_gcc.h ****   \details Returns the current value of the Main Stack Pointer (MSP).
 171:Drivers/STM32Cube_FW_F1_V1.4.0/CMSIS/Include/cmsis_gcc.h ****   \return               MSP Register value
 172:Drivers/STM32Cube_FW_F1_V1.4.0/CMSIS/Include/cmsis_gcc.h ****  */
 173:Drivers/STM32Cube_FW_F1_V1.4.0/CMSIS/Include/cmsis_gcc.h **** __attribute__( ( always_inline ) ) __STATIC_INLINE uint32_t __get_MSP(void)
 174:Drivers/STM32Cube_FW_F1_V1.4.0/CMSIS/Include/cmsis_gcc.h **** {
 175:Drivers/STM32Cube_FW_F1_V1.4.0/CMSIS/Include/cmsis_gcc.h ****   register uint32_t result;
 176:Drivers/STM32Cube_FW_F1_V1.4.0/CMSIS/Include/cmsis_gcc.h **** 
 177:Drivers/STM32Cube_FW_F1_V1.4.0/CMSIS/Include/cmsis_gcc.h ****   __ASM volatile ("MRS %0, msp\n" : "=r" (result) );
 178:Drivers/STM32Cube_FW_F1_V1.4.0/CMSIS/Include/cmsis_gcc.h ****   return(result);
 179:Drivers/STM32Cube_FW_F1_V1.4.0/CMSIS/Include/cmsis_gcc.h **** }
 180:Drivers/STM32Cube_FW_F1_V1.4.0/CMSIS/Include/cmsis_gcc.h **** 
 181:Drivers/STM32Cube_FW_F1_V1.4.0/CMSIS/Include/cmsis_gcc.h **** 
 182:Drivers/STM32Cube_FW_F1_V1.4.0/CMSIS/Include/cmsis_gcc.h **** /**
 183:Drivers/STM32Cube_FW_F1_V1.4.0/CMSIS/Include/cmsis_gcc.h ****   \brief   Set Main Stack Pointer
 184:Drivers/STM32Cube_FW_F1_V1.4.0/CMSIS/Include/cmsis_gcc.h ****   \details Assigns the given value to the Main Stack Pointer (MSP).
 185:Drivers/STM32Cube_FW_F1_V1.4.0/CMSIS/Include/cmsis_gcc.h **** 
 186:Drivers/STM32Cube_FW_F1_V1.4.0/CMSIS/Include/cmsis_gcc.h ****     \param [in]    topOfMainStack  Main Stack Pointer value to set
 187:Drivers/STM32Cube_FW_F1_V1.4.0/CMSIS/Include/cmsis_gcc.h ****  */
 188:Drivers/STM32Cube_FW_F1_V1.4.0/CMSIS/Include/cmsis_gcc.h **** __attribute__( ( always_inline ) ) __STATIC_INLINE void __set_MSP(uint32_t topOfMainStack)
 189:Drivers/STM32Cube_FW_F1_V1.4.0/CMSIS/Include/cmsis_gcc.h **** {
 190:Drivers/STM32Cube_FW_F1_V1.4.0/CMSIS/Include/cmsis_gcc.h ****   __ASM volatile ("MSR msp, %0\n" : : "r" (topOfMainStack) : "sp");
 191:Drivers/STM32Cube_FW_F1_V1.4.0/CMSIS/Include/cmsis_gcc.h **** }
 192:Drivers/STM32Cube_FW_F1_V1.4.0/CMSIS/Include/cmsis_gcc.h **** 
 193:Drivers/STM32Cube_FW_F1_V1.4.0/CMSIS/Include/cmsis_gcc.h **** 
 194:Drivers/STM32Cube_FW_F1_V1.4.0/CMSIS/Include/cmsis_gcc.h **** /**
 195:Drivers/STM32Cube_FW_F1_V1.4.0/CMSIS/Include/cmsis_gcc.h ****   \brief   Get Priority Mask
 196:Drivers/STM32Cube_FW_F1_V1.4.0/CMSIS/Include/cmsis_gcc.h ****   \details Returns the current state of the priority mask bit from the Priority Mask Register.
 197:Drivers/STM32Cube_FW_F1_V1.4.0/CMSIS/Include/cmsis_gcc.h ****   \return               Priority Mask value
 198:Drivers/STM32Cube_FW_F1_V1.4.0/CMSIS/Include/cmsis_gcc.h ****  */
ARM GAS  /tmp/ccV4uqBd.s 			page 18


 199:Drivers/STM32Cube_FW_F1_V1.4.0/CMSIS/Include/cmsis_gcc.h **** __attribute__( ( always_inline ) ) __STATIC_INLINE uint32_t __get_PRIMASK(void)
 200:Drivers/STM32Cube_FW_F1_V1.4.0/CMSIS/Include/cmsis_gcc.h **** {
 201:Drivers/STM32Cube_FW_F1_V1.4.0/CMSIS/Include/cmsis_gcc.h ****   uint32_t result;
 202:Drivers/STM32Cube_FW_F1_V1.4.0/CMSIS/Include/cmsis_gcc.h **** 
 203:Drivers/STM32Cube_FW_F1_V1.4.0/CMSIS/Include/cmsis_gcc.h ****   __ASM volatile ("MRS %0, primask" : "=r" (result) );
 204:Drivers/STM32Cube_FW_F1_V1.4.0/CMSIS/Include/cmsis_gcc.h ****   return(result);
 205:Drivers/STM32Cube_FW_F1_V1.4.0/CMSIS/Include/cmsis_gcc.h **** }
 206:Drivers/STM32Cube_FW_F1_V1.4.0/CMSIS/Include/cmsis_gcc.h **** 
 207:Drivers/STM32Cube_FW_F1_V1.4.0/CMSIS/Include/cmsis_gcc.h **** 
 208:Drivers/STM32Cube_FW_F1_V1.4.0/CMSIS/Include/cmsis_gcc.h **** /**
 209:Drivers/STM32Cube_FW_F1_V1.4.0/CMSIS/Include/cmsis_gcc.h ****   \brief   Set Priority Mask
 210:Drivers/STM32Cube_FW_F1_V1.4.0/CMSIS/Include/cmsis_gcc.h ****   \details Assigns the given value to the Priority Mask Register.
 211:Drivers/STM32Cube_FW_F1_V1.4.0/CMSIS/Include/cmsis_gcc.h ****   \param [in]    priMask  Priority Mask
 212:Drivers/STM32Cube_FW_F1_V1.4.0/CMSIS/Include/cmsis_gcc.h ****  */
 213:Drivers/STM32Cube_FW_F1_V1.4.0/CMSIS/Include/cmsis_gcc.h **** __attribute__( ( always_inline ) ) __STATIC_INLINE void __set_PRIMASK(uint32_t priMask)
 214:Drivers/STM32Cube_FW_F1_V1.4.0/CMSIS/Include/cmsis_gcc.h **** {
 215:Drivers/STM32Cube_FW_F1_V1.4.0/CMSIS/Include/cmsis_gcc.h ****   __ASM volatile ("MSR primask, %0" : : "r" (priMask) : "memory");
 216:Drivers/STM32Cube_FW_F1_V1.4.0/CMSIS/Include/cmsis_gcc.h **** }
 217:Drivers/STM32Cube_FW_F1_V1.4.0/CMSIS/Include/cmsis_gcc.h **** 
 218:Drivers/STM32Cube_FW_F1_V1.4.0/CMSIS/Include/cmsis_gcc.h **** 
 219:Drivers/STM32Cube_FW_F1_V1.4.0/CMSIS/Include/cmsis_gcc.h **** #if       (__CORTEX_M >= 0x03U)
 220:Drivers/STM32Cube_FW_F1_V1.4.0/CMSIS/Include/cmsis_gcc.h **** 
 221:Drivers/STM32Cube_FW_F1_V1.4.0/CMSIS/Include/cmsis_gcc.h **** /**
 222:Drivers/STM32Cube_FW_F1_V1.4.0/CMSIS/Include/cmsis_gcc.h ****   \brief   Enable FIQ
 223:Drivers/STM32Cube_FW_F1_V1.4.0/CMSIS/Include/cmsis_gcc.h ****   \details Enables FIQ interrupts by clearing the F-bit in the CPSR.
 224:Drivers/STM32Cube_FW_F1_V1.4.0/CMSIS/Include/cmsis_gcc.h ****            Can only be executed in Privileged modes.
 225:Drivers/STM32Cube_FW_F1_V1.4.0/CMSIS/Include/cmsis_gcc.h ****  */
 226:Drivers/STM32Cube_FW_F1_V1.4.0/CMSIS/Include/cmsis_gcc.h **** __attribute__( ( always_inline ) ) __STATIC_INLINE void __enable_fault_irq(void)
 227:Drivers/STM32Cube_FW_F1_V1.4.0/CMSIS/Include/cmsis_gcc.h **** {
 228:Drivers/STM32Cube_FW_F1_V1.4.0/CMSIS/Include/cmsis_gcc.h ****   __ASM volatile ("cpsie f" : : : "memory");
 229:Drivers/STM32Cube_FW_F1_V1.4.0/CMSIS/Include/cmsis_gcc.h **** }
 230:Drivers/STM32Cube_FW_F1_V1.4.0/CMSIS/Include/cmsis_gcc.h **** 
 231:Drivers/STM32Cube_FW_F1_V1.4.0/CMSIS/Include/cmsis_gcc.h **** 
 232:Drivers/STM32Cube_FW_F1_V1.4.0/CMSIS/Include/cmsis_gcc.h **** /**
 233:Drivers/STM32Cube_FW_F1_V1.4.0/CMSIS/Include/cmsis_gcc.h ****   \brief   Disable FIQ
 234:Drivers/STM32Cube_FW_F1_V1.4.0/CMSIS/Include/cmsis_gcc.h ****   \details Disables FIQ interrupts by setting the F-bit in the CPSR.
 235:Drivers/STM32Cube_FW_F1_V1.4.0/CMSIS/Include/cmsis_gcc.h ****            Can only be executed in Privileged modes.
 236:Drivers/STM32Cube_FW_F1_V1.4.0/CMSIS/Include/cmsis_gcc.h ****  */
 237:Drivers/STM32Cube_FW_F1_V1.4.0/CMSIS/Include/cmsis_gcc.h **** __attribute__( ( always_inline ) ) __STATIC_INLINE void __disable_fault_irq(void)
 238:Drivers/STM32Cube_FW_F1_V1.4.0/CMSIS/Include/cmsis_gcc.h **** {
 239:Drivers/STM32Cube_FW_F1_V1.4.0/CMSIS/Include/cmsis_gcc.h ****   __ASM volatile ("cpsid f" : : : "memory");
 240:Drivers/STM32Cube_FW_F1_V1.4.0/CMSIS/Include/cmsis_gcc.h **** }
 241:Drivers/STM32Cube_FW_F1_V1.4.0/CMSIS/Include/cmsis_gcc.h **** 
 242:Drivers/STM32Cube_FW_F1_V1.4.0/CMSIS/Include/cmsis_gcc.h **** 
 243:Drivers/STM32Cube_FW_F1_V1.4.0/CMSIS/Include/cmsis_gcc.h **** /**
 244:Drivers/STM32Cube_FW_F1_V1.4.0/CMSIS/Include/cmsis_gcc.h ****   \brief   Get Base Priority
 245:Drivers/STM32Cube_FW_F1_V1.4.0/CMSIS/Include/cmsis_gcc.h ****   \details Returns the current value of the Base Priority register.
 246:Drivers/STM32Cube_FW_F1_V1.4.0/CMSIS/Include/cmsis_gcc.h ****   \return               Base Priority register value
 247:Drivers/STM32Cube_FW_F1_V1.4.0/CMSIS/Include/cmsis_gcc.h ****  */
 248:Drivers/STM32Cube_FW_F1_V1.4.0/CMSIS/Include/cmsis_gcc.h **** __attribute__( ( always_inline ) ) __STATIC_INLINE uint32_t __get_BASEPRI(void)
 249:Drivers/STM32Cube_FW_F1_V1.4.0/CMSIS/Include/cmsis_gcc.h **** {
 250:Drivers/STM32Cube_FW_F1_V1.4.0/CMSIS/Include/cmsis_gcc.h ****   uint32_t result;
 251:Drivers/STM32Cube_FW_F1_V1.4.0/CMSIS/Include/cmsis_gcc.h **** 
 252:Drivers/STM32Cube_FW_F1_V1.4.0/CMSIS/Include/cmsis_gcc.h ****   __ASM volatile ("MRS %0, basepri" : "=r" (result) );
 253:Drivers/STM32Cube_FW_F1_V1.4.0/CMSIS/Include/cmsis_gcc.h ****   return(result);
 254:Drivers/STM32Cube_FW_F1_V1.4.0/CMSIS/Include/cmsis_gcc.h **** }
 255:Drivers/STM32Cube_FW_F1_V1.4.0/CMSIS/Include/cmsis_gcc.h **** 
ARM GAS  /tmp/ccV4uqBd.s 			page 19


 256:Drivers/STM32Cube_FW_F1_V1.4.0/CMSIS/Include/cmsis_gcc.h **** 
 257:Drivers/STM32Cube_FW_F1_V1.4.0/CMSIS/Include/cmsis_gcc.h **** /**
 258:Drivers/STM32Cube_FW_F1_V1.4.0/CMSIS/Include/cmsis_gcc.h ****   \brief   Set Base Priority
 259:Drivers/STM32Cube_FW_F1_V1.4.0/CMSIS/Include/cmsis_gcc.h ****   \details Assigns the given value to the Base Priority register.
 260:Drivers/STM32Cube_FW_F1_V1.4.0/CMSIS/Include/cmsis_gcc.h ****   \param [in]    basePri  Base Priority value to set
 261:Drivers/STM32Cube_FW_F1_V1.4.0/CMSIS/Include/cmsis_gcc.h ****  */
 262:Drivers/STM32Cube_FW_F1_V1.4.0/CMSIS/Include/cmsis_gcc.h **** __attribute__( ( always_inline ) ) __STATIC_INLINE void __set_BASEPRI(uint32_t value)
 263:Drivers/STM32Cube_FW_F1_V1.4.0/CMSIS/Include/cmsis_gcc.h **** {
 264:Drivers/STM32Cube_FW_F1_V1.4.0/CMSIS/Include/cmsis_gcc.h ****   __ASM volatile ("MSR basepri, %0" : : "r" (value) : "memory");
 265:Drivers/STM32Cube_FW_F1_V1.4.0/CMSIS/Include/cmsis_gcc.h **** }
 266:Drivers/STM32Cube_FW_F1_V1.4.0/CMSIS/Include/cmsis_gcc.h **** 
 267:Drivers/STM32Cube_FW_F1_V1.4.0/CMSIS/Include/cmsis_gcc.h **** 
 268:Drivers/STM32Cube_FW_F1_V1.4.0/CMSIS/Include/cmsis_gcc.h **** /**
 269:Drivers/STM32Cube_FW_F1_V1.4.0/CMSIS/Include/cmsis_gcc.h ****   \brief   Set Base Priority with condition
 270:Drivers/STM32Cube_FW_F1_V1.4.0/CMSIS/Include/cmsis_gcc.h ****   \details Assigns the given value to the Base Priority register only if BASEPRI masking is disable
 271:Drivers/STM32Cube_FW_F1_V1.4.0/CMSIS/Include/cmsis_gcc.h ****            or the new value increases the BASEPRI priority level.
 272:Drivers/STM32Cube_FW_F1_V1.4.0/CMSIS/Include/cmsis_gcc.h ****   \param [in]    basePri  Base Priority value to set
 273:Drivers/STM32Cube_FW_F1_V1.4.0/CMSIS/Include/cmsis_gcc.h ****  */
 274:Drivers/STM32Cube_FW_F1_V1.4.0/CMSIS/Include/cmsis_gcc.h **** __attribute__( ( always_inline ) ) __STATIC_INLINE void __set_BASEPRI_MAX(uint32_t value)
 275:Drivers/STM32Cube_FW_F1_V1.4.0/CMSIS/Include/cmsis_gcc.h **** {
 276:Drivers/STM32Cube_FW_F1_V1.4.0/CMSIS/Include/cmsis_gcc.h ****   __ASM volatile ("MSR basepri_max, %0" : : "r" (value) : "memory");
 277:Drivers/STM32Cube_FW_F1_V1.4.0/CMSIS/Include/cmsis_gcc.h **** }
 278:Drivers/STM32Cube_FW_F1_V1.4.0/CMSIS/Include/cmsis_gcc.h **** 
 279:Drivers/STM32Cube_FW_F1_V1.4.0/CMSIS/Include/cmsis_gcc.h **** 
 280:Drivers/STM32Cube_FW_F1_V1.4.0/CMSIS/Include/cmsis_gcc.h **** /**
 281:Drivers/STM32Cube_FW_F1_V1.4.0/CMSIS/Include/cmsis_gcc.h ****   \brief   Get Fault Mask
 282:Drivers/STM32Cube_FW_F1_V1.4.0/CMSIS/Include/cmsis_gcc.h ****   \details Returns the current value of the Fault Mask register.
 283:Drivers/STM32Cube_FW_F1_V1.4.0/CMSIS/Include/cmsis_gcc.h ****   \return               Fault Mask register value
 284:Drivers/STM32Cube_FW_F1_V1.4.0/CMSIS/Include/cmsis_gcc.h ****  */
 285:Drivers/STM32Cube_FW_F1_V1.4.0/CMSIS/Include/cmsis_gcc.h **** __attribute__( ( always_inline ) ) __STATIC_INLINE uint32_t __get_FAULTMASK(void)
 286:Drivers/STM32Cube_FW_F1_V1.4.0/CMSIS/Include/cmsis_gcc.h **** {
 287:Drivers/STM32Cube_FW_F1_V1.4.0/CMSIS/Include/cmsis_gcc.h ****   uint32_t result;
 288:Drivers/STM32Cube_FW_F1_V1.4.0/CMSIS/Include/cmsis_gcc.h **** 
 289:Drivers/STM32Cube_FW_F1_V1.4.0/CMSIS/Include/cmsis_gcc.h ****   __ASM volatile ("MRS %0, faultmask" : "=r" (result) );
 290:Drivers/STM32Cube_FW_F1_V1.4.0/CMSIS/Include/cmsis_gcc.h ****   return(result);
 291:Drivers/STM32Cube_FW_F1_V1.4.0/CMSIS/Include/cmsis_gcc.h **** }
 292:Drivers/STM32Cube_FW_F1_V1.4.0/CMSIS/Include/cmsis_gcc.h **** 
 293:Drivers/STM32Cube_FW_F1_V1.4.0/CMSIS/Include/cmsis_gcc.h **** 
 294:Drivers/STM32Cube_FW_F1_V1.4.0/CMSIS/Include/cmsis_gcc.h **** /**
 295:Drivers/STM32Cube_FW_F1_V1.4.0/CMSIS/Include/cmsis_gcc.h ****   \brief   Set Fault Mask
 296:Drivers/STM32Cube_FW_F1_V1.4.0/CMSIS/Include/cmsis_gcc.h ****   \details Assigns the given value to the Fault Mask register.
 297:Drivers/STM32Cube_FW_F1_V1.4.0/CMSIS/Include/cmsis_gcc.h ****   \param [in]    faultMask  Fault Mask value to set
 298:Drivers/STM32Cube_FW_F1_V1.4.0/CMSIS/Include/cmsis_gcc.h ****  */
 299:Drivers/STM32Cube_FW_F1_V1.4.0/CMSIS/Include/cmsis_gcc.h **** __attribute__( ( always_inline ) ) __STATIC_INLINE void __set_FAULTMASK(uint32_t faultMask)
 300:Drivers/STM32Cube_FW_F1_V1.4.0/CMSIS/Include/cmsis_gcc.h **** {
 301:Drivers/STM32Cube_FW_F1_V1.4.0/CMSIS/Include/cmsis_gcc.h ****   __ASM volatile ("MSR faultmask, %0" : : "r" (faultMask) : "memory");
 302:Drivers/STM32Cube_FW_F1_V1.4.0/CMSIS/Include/cmsis_gcc.h **** }
 303:Drivers/STM32Cube_FW_F1_V1.4.0/CMSIS/Include/cmsis_gcc.h **** 
 304:Drivers/STM32Cube_FW_F1_V1.4.0/CMSIS/Include/cmsis_gcc.h **** #endif /* (__CORTEX_M >= 0x03U) */
 305:Drivers/STM32Cube_FW_F1_V1.4.0/CMSIS/Include/cmsis_gcc.h **** 
 306:Drivers/STM32Cube_FW_F1_V1.4.0/CMSIS/Include/cmsis_gcc.h **** 
 307:Drivers/STM32Cube_FW_F1_V1.4.0/CMSIS/Include/cmsis_gcc.h **** #if       (__CORTEX_M == 0x04U) || (__CORTEX_M == 0x07U)
 308:Drivers/STM32Cube_FW_F1_V1.4.0/CMSIS/Include/cmsis_gcc.h **** 
 309:Drivers/STM32Cube_FW_F1_V1.4.0/CMSIS/Include/cmsis_gcc.h **** /**
 310:Drivers/STM32Cube_FW_F1_V1.4.0/CMSIS/Include/cmsis_gcc.h ****   \brief   Get FPSCR
 311:Drivers/STM32Cube_FW_F1_V1.4.0/CMSIS/Include/cmsis_gcc.h ****   \details Returns the current value of the Floating Point Status/Control register.
 312:Drivers/STM32Cube_FW_F1_V1.4.0/CMSIS/Include/cmsis_gcc.h ****   \return               Floating Point Status/Control register value
ARM GAS  /tmp/ccV4uqBd.s 			page 20


 313:Drivers/STM32Cube_FW_F1_V1.4.0/CMSIS/Include/cmsis_gcc.h ****  */
 314:Drivers/STM32Cube_FW_F1_V1.4.0/CMSIS/Include/cmsis_gcc.h **** __attribute__( ( always_inline ) ) __STATIC_INLINE uint32_t __get_FPSCR(void)
 315:Drivers/STM32Cube_FW_F1_V1.4.0/CMSIS/Include/cmsis_gcc.h **** {
 316:Drivers/STM32Cube_FW_F1_V1.4.0/CMSIS/Include/cmsis_gcc.h **** #if (__FPU_PRESENT == 1U) && (__FPU_USED == 1U)
 317:Drivers/STM32Cube_FW_F1_V1.4.0/CMSIS/Include/cmsis_gcc.h ****   uint32_t result;
 318:Drivers/STM32Cube_FW_F1_V1.4.0/CMSIS/Include/cmsis_gcc.h **** 
 319:Drivers/STM32Cube_FW_F1_V1.4.0/CMSIS/Include/cmsis_gcc.h ****   /* Empty asm statement works as a scheduling barrier */
 320:Drivers/STM32Cube_FW_F1_V1.4.0/CMSIS/Include/cmsis_gcc.h ****   __ASM volatile ("");
 321:Drivers/STM32Cube_FW_F1_V1.4.0/CMSIS/Include/cmsis_gcc.h ****   __ASM volatile ("VMRS %0, fpscr" : "=r" (result) );
 322:Drivers/STM32Cube_FW_F1_V1.4.0/CMSIS/Include/cmsis_gcc.h ****   __ASM volatile ("");
 323:Drivers/STM32Cube_FW_F1_V1.4.0/CMSIS/Include/cmsis_gcc.h ****   return(result);
 324:Drivers/STM32Cube_FW_F1_V1.4.0/CMSIS/Include/cmsis_gcc.h **** #else
 325:Drivers/STM32Cube_FW_F1_V1.4.0/CMSIS/Include/cmsis_gcc.h ****    return(0);
 326:Drivers/STM32Cube_FW_F1_V1.4.0/CMSIS/Include/cmsis_gcc.h **** #endif
 327:Drivers/STM32Cube_FW_F1_V1.4.0/CMSIS/Include/cmsis_gcc.h **** }
 328:Drivers/STM32Cube_FW_F1_V1.4.0/CMSIS/Include/cmsis_gcc.h **** 
 329:Drivers/STM32Cube_FW_F1_V1.4.0/CMSIS/Include/cmsis_gcc.h **** 
 330:Drivers/STM32Cube_FW_F1_V1.4.0/CMSIS/Include/cmsis_gcc.h **** /**
 331:Drivers/STM32Cube_FW_F1_V1.4.0/CMSIS/Include/cmsis_gcc.h ****   \brief   Set FPSCR
 332:Drivers/STM32Cube_FW_F1_V1.4.0/CMSIS/Include/cmsis_gcc.h ****   \details Assigns the given value to the Floating Point Status/Control register.
 333:Drivers/STM32Cube_FW_F1_V1.4.0/CMSIS/Include/cmsis_gcc.h ****   \param [in]    fpscr  Floating Point Status/Control value to set
 334:Drivers/STM32Cube_FW_F1_V1.4.0/CMSIS/Include/cmsis_gcc.h ****  */
 335:Drivers/STM32Cube_FW_F1_V1.4.0/CMSIS/Include/cmsis_gcc.h **** __attribute__( ( always_inline ) ) __STATIC_INLINE void __set_FPSCR(uint32_t fpscr)
 336:Drivers/STM32Cube_FW_F1_V1.4.0/CMSIS/Include/cmsis_gcc.h **** {
 337:Drivers/STM32Cube_FW_F1_V1.4.0/CMSIS/Include/cmsis_gcc.h **** #if (__FPU_PRESENT == 1U) && (__FPU_USED == 1U)
 338:Drivers/STM32Cube_FW_F1_V1.4.0/CMSIS/Include/cmsis_gcc.h ****   /* Empty asm statement works as a scheduling barrier */
 339:Drivers/STM32Cube_FW_F1_V1.4.0/CMSIS/Include/cmsis_gcc.h ****   __ASM volatile ("");
 340:Drivers/STM32Cube_FW_F1_V1.4.0/CMSIS/Include/cmsis_gcc.h ****   __ASM volatile ("VMSR fpscr, %0" : : "r" (fpscr) : "vfpcc");
 341:Drivers/STM32Cube_FW_F1_V1.4.0/CMSIS/Include/cmsis_gcc.h ****   __ASM volatile ("");
 342:Drivers/STM32Cube_FW_F1_V1.4.0/CMSIS/Include/cmsis_gcc.h **** #endif
 343:Drivers/STM32Cube_FW_F1_V1.4.0/CMSIS/Include/cmsis_gcc.h **** }
 344:Drivers/STM32Cube_FW_F1_V1.4.0/CMSIS/Include/cmsis_gcc.h **** 
 345:Drivers/STM32Cube_FW_F1_V1.4.0/CMSIS/Include/cmsis_gcc.h **** #endif /* (__CORTEX_M == 0x04U) || (__CORTEX_M == 0x07U) */
 346:Drivers/STM32Cube_FW_F1_V1.4.0/CMSIS/Include/cmsis_gcc.h **** 
 347:Drivers/STM32Cube_FW_F1_V1.4.0/CMSIS/Include/cmsis_gcc.h **** 
 348:Drivers/STM32Cube_FW_F1_V1.4.0/CMSIS/Include/cmsis_gcc.h **** 
 349:Drivers/STM32Cube_FW_F1_V1.4.0/CMSIS/Include/cmsis_gcc.h **** /*@} end of CMSIS_Core_RegAccFunctions */
 350:Drivers/STM32Cube_FW_F1_V1.4.0/CMSIS/Include/cmsis_gcc.h **** 
 351:Drivers/STM32Cube_FW_F1_V1.4.0/CMSIS/Include/cmsis_gcc.h **** 
 352:Drivers/STM32Cube_FW_F1_V1.4.0/CMSIS/Include/cmsis_gcc.h **** /* ##########################  Core Instruction Access  ######################### */
 353:Drivers/STM32Cube_FW_F1_V1.4.0/CMSIS/Include/cmsis_gcc.h **** /** \defgroup CMSIS_Core_InstructionInterface CMSIS Core Instruction Interface
 354:Drivers/STM32Cube_FW_F1_V1.4.0/CMSIS/Include/cmsis_gcc.h ****   Access to dedicated instructions
 355:Drivers/STM32Cube_FW_F1_V1.4.0/CMSIS/Include/cmsis_gcc.h ****   @{
 356:Drivers/STM32Cube_FW_F1_V1.4.0/CMSIS/Include/cmsis_gcc.h **** */
 357:Drivers/STM32Cube_FW_F1_V1.4.0/CMSIS/Include/cmsis_gcc.h **** 
 358:Drivers/STM32Cube_FW_F1_V1.4.0/CMSIS/Include/cmsis_gcc.h **** /* Define macros for porting to both thumb1 and thumb2.
 359:Drivers/STM32Cube_FW_F1_V1.4.0/CMSIS/Include/cmsis_gcc.h ****  * For thumb1, use low register (r0-r7), specified by constraint "l"
 360:Drivers/STM32Cube_FW_F1_V1.4.0/CMSIS/Include/cmsis_gcc.h ****  * Otherwise, use general registers, specified by constraint "r" */
 361:Drivers/STM32Cube_FW_F1_V1.4.0/CMSIS/Include/cmsis_gcc.h **** #if defined (__thumb__) && !defined (__thumb2__)
 362:Drivers/STM32Cube_FW_F1_V1.4.0/CMSIS/Include/cmsis_gcc.h **** #define __CMSIS_GCC_OUT_REG(r) "=l" (r)
 363:Drivers/STM32Cube_FW_F1_V1.4.0/CMSIS/Include/cmsis_gcc.h **** #define __CMSIS_GCC_USE_REG(r) "l" (r)
 364:Drivers/STM32Cube_FW_F1_V1.4.0/CMSIS/Include/cmsis_gcc.h **** #else
 365:Drivers/STM32Cube_FW_F1_V1.4.0/CMSIS/Include/cmsis_gcc.h **** #define __CMSIS_GCC_OUT_REG(r) "=r" (r)
 366:Drivers/STM32Cube_FW_F1_V1.4.0/CMSIS/Include/cmsis_gcc.h **** #define __CMSIS_GCC_USE_REG(r) "r" (r)
 367:Drivers/STM32Cube_FW_F1_V1.4.0/CMSIS/Include/cmsis_gcc.h **** #endif
 368:Drivers/STM32Cube_FW_F1_V1.4.0/CMSIS/Include/cmsis_gcc.h **** 
 369:Drivers/STM32Cube_FW_F1_V1.4.0/CMSIS/Include/cmsis_gcc.h **** /**
ARM GAS  /tmp/ccV4uqBd.s 			page 21


 370:Drivers/STM32Cube_FW_F1_V1.4.0/CMSIS/Include/cmsis_gcc.h ****   \brief   No Operation
 371:Drivers/STM32Cube_FW_F1_V1.4.0/CMSIS/Include/cmsis_gcc.h ****   \details No Operation does nothing. This instruction can be used for code alignment purposes.
 372:Drivers/STM32Cube_FW_F1_V1.4.0/CMSIS/Include/cmsis_gcc.h ****  */
 373:Drivers/STM32Cube_FW_F1_V1.4.0/CMSIS/Include/cmsis_gcc.h **** __attribute__((always_inline)) __STATIC_INLINE void __NOP(void)
 374:Drivers/STM32Cube_FW_F1_V1.4.0/CMSIS/Include/cmsis_gcc.h **** {
 375:Drivers/STM32Cube_FW_F1_V1.4.0/CMSIS/Include/cmsis_gcc.h ****   __ASM volatile ("nop");
 376:Drivers/STM32Cube_FW_F1_V1.4.0/CMSIS/Include/cmsis_gcc.h **** }
 377:Drivers/STM32Cube_FW_F1_V1.4.0/CMSIS/Include/cmsis_gcc.h **** 
 378:Drivers/STM32Cube_FW_F1_V1.4.0/CMSIS/Include/cmsis_gcc.h **** 
 379:Drivers/STM32Cube_FW_F1_V1.4.0/CMSIS/Include/cmsis_gcc.h **** /**
 380:Drivers/STM32Cube_FW_F1_V1.4.0/CMSIS/Include/cmsis_gcc.h ****   \brief   Wait For Interrupt
 381:Drivers/STM32Cube_FW_F1_V1.4.0/CMSIS/Include/cmsis_gcc.h ****   \details Wait For Interrupt is a hint instruction that suspends execution until one of a number o
 382:Drivers/STM32Cube_FW_F1_V1.4.0/CMSIS/Include/cmsis_gcc.h ****  */
 383:Drivers/STM32Cube_FW_F1_V1.4.0/CMSIS/Include/cmsis_gcc.h **** __attribute__((always_inline)) __STATIC_INLINE void __WFI(void)
 384:Drivers/STM32Cube_FW_F1_V1.4.0/CMSIS/Include/cmsis_gcc.h **** {
 385:Drivers/STM32Cube_FW_F1_V1.4.0/CMSIS/Include/cmsis_gcc.h ****   __ASM volatile ("wfi");
 386:Drivers/STM32Cube_FW_F1_V1.4.0/CMSIS/Include/cmsis_gcc.h **** }
 387:Drivers/STM32Cube_FW_F1_V1.4.0/CMSIS/Include/cmsis_gcc.h **** 
 388:Drivers/STM32Cube_FW_F1_V1.4.0/CMSIS/Include/cmsis_gcc.h **** 
 389:Drivers/STM32Cube_FW_F1_V1.4.0/CMSIS/Include/cmsis_gcc.h **** /**
 390:Drivers/STM32Cube_FW_F1_V1.4.0/CMSIS/Include/cmsis_gcc.h ****   \brief   Wait For Event
 391:Drivers/STM32Cube_FW_F1_V1.4.0/CMSIS/Include/cmsis_gcc.h ****   \details Wait For Event is a hint instruction that permits the processor to enter
 392:Drivers/STM32Cube_FW_F1_V1.4.0/CMSIS/Include/cmsis_gcc.h ****     a low-power state until one of a number of events occurs.
 393:Drivers/STM32Cube_FW_F1_V1.4.0/CMSIS/Include/cmsis_gcc.h ****  */
 394:Drivers/STM32Cube_FW_F1_V1.4.0/CMSIS/Include/cmsis_gcc.h **** __attribute__((always_inline)) __STATIC_INLINE void __WFE(void)
 395:Drivers/STM32Cube_FW_F1_V1.4.0/CMSIS/Include/cmsis_gcc.h **** {
 396:Drivers/STM32Cube_FW_F1_V1.4.0/CMSIS/Include/cmsis_gcc.h ****   __ASM volatile ("wfe");
 397:Drivers/STM32Cube_FW_F1_V1.4.0/CMSIS/Include/cmsis_gcc.h **** }
 398:Drivers/STM32Cube_FW_F1_V1.4.0/CMSIS/Include/cmsis_gcc.h **** 
 399:Drivers/STM32Cube_FW_F1_V1.4.0/CMSIS/Include/cmsis_gcc.h **** 
 400:Drivers/STM32Cube_FW_F1_V1.4.0/CMSIS/Include/cmsis_gcc.h **** /**
 401:Drivers/STM32Cube_FW_F1_V1.4.0/CMSIS/Include/cmsis_gcc.h ****   \brief   Send Event
 402:Drivers/STM32Cube_FW_F1_V1.4.0/CMSIS/Include/cmsis_gcc.h ****   \details Send Event is a hint instruction. It causes an event to be signaled to the CPU.
 403:Drivers/STM32Cube_FW_F1_V1.4.0/CMSIS/Include/cmsis_gcc.h ****  */
 404:Drivers/STM32Cube_FW_F1_V1.4.0/CMSIS/Include/cmsis_gcc.h **** __attribute__((always_inline)) __STATIC_INLINE void __SEV(void)
 405:Drivers/STM32Cube_FW_F1_V1.4.0/CMSIS/Include/cmsis_gcc.h **** {
 406:Drivers/STM32Cube_FW_F1_V1.4.0/CMSIS/Include/cmsis_gcc.h ****   __ASM volatile ("sev");
 407:Drivers/STM32Cube_FW_F1_V1.4.0/CMSIS/Include/cmsis_gcc.h **** }
 408:Drivers/STM32Cube_FW_F1_V1.4.0/CMSIS/Include/cmsis_gcc.h **** 
 409:Drivers/STM32Cube_FW_F1_V1.4.0/CMSIS/Include/cmsis_gcc.h **** 
 410:Drivers/STM32Cube_FW_F1_V1.4.0/CMSIS/Include/cmsis_gcc.h **** /**
 411:Drivers/STM32Cube_FW_F1_V1.4.0/CMSIS/Include/cmsis_gcc.h ****   \brief   Instruction Synchronization Barrier
 412:Drivers/STM32Cube_FW_F1_V1.4.0/CMSIS/Include/cmsis_gcc.h ****   \details Instruction Synchronization Barrier flushes the pipeline in the processor,
 413:Drivers/STM32Cube_FW_F1_V1.4.0/CMSIS/Include/cmsis_gcc.h ****            so that all instructions following the ISB are fetched from cache or memory,
 414:Drivers/STM32Cube_FW_F1_V1.4.0/CMSIS/Include/cmsis_gcc.h ****            after the instruction has been completed.
 415:Drivers/STM32Cube_FW_F1_V1.4.0/CMSIS/Include/cmsis_gcc.h ****  */
 416:Drivers/STM32Cube_FW_F1_V1.4.0/CMSIS/Include/cmsis_gcc.h **** __attribute__((always_inline)) __STATIC_INLINE void __ISB(void)
 417:Drivers/STM32Cube_FW_F1_V1.4.0/CMSIS/Include/cmsis_gcc.h **** {
 418:Drivers/STM32Cube_FW_F1_V1.4.0/CMSIS/Include/cmsis_gcc.h ****   __ASM volatile ("isb 0xF":::"memory");
 419:Drivers/STM32Cube_FW_F1_V1.4.0/CMSIS/Include/cmsis_gcc.h **** }
 420:Drivers/STM32Cube_FW_F1_V1.4.0/CMSIS/Include/cmsis_gcc.h **** 
 421:Drivers/STM32Cube_FW_F1_V1.4.0/CMSIS/Include/cmsis_gcc.h **** 
 422:Drivers/STM32Cube_FW_F1_V1.4.0/CMSIS/Include/cmsis_gcc.h **** /**
 423:Drivers/STM32Cube_FW_F1_V1.4.0/CMSIS/Include/cmsis_gcc.h ****   \brief   Data Synchronization Barrier
 424:Drivers/STM32Cube_FW_F1_V1.4.0/CMSIS/Include/cmsis_gcc.h ****   \details Acts as a special kind of Data Memory Barrier.
 425:Drivers/STM32Cube_FW_F1_V1.4.0/CMSIS/Include/cmsis_gcc.h ****            It completes when all explicit memory accesses before this instruction complete.
 426:Drivers/STM32Cube_FW_F1_V1.4.0/CMSIS/Include/cmsis_gcc.h ****  */
ARM GAS  /tmp/ccV4uqBd.s 			page 22


 427:Drivers/STM32Cube_FW_F1_V1.4.0/CMSIS/Include/cmsis_gcc.h **** __attribute__((always_inline)) __STATIC_INLINE void __DSB(void)
 428:Drivers/STM32Cube_FW_F1_V1.4.0/CMSIS/Include/cmsis_gcc.h **** {
 429:Drivers/STM32Cube_FW_F1_V1.4.0/CMSIS/Include/cmsis_gcc.h ****   __ASM volatile ("dsb 0xF":::"memory");
 430:Drivers/STM32Cube_FW_F1_V1.4.0/CMSIS/Include/cmsis_gcc.h **** }
 431:Drivers/STM32Cube_FW_F1_V1.4.0/CMSIS/Include/cmsis_gcc.h **** 
 432:Drivers/STM32Cube_FW_F1_V1.4.0/CMSIS/Include/cmsis_gcc.h **** 
 433:Drivers/STM32Cube_FW_F1_V1.4.0/CMSIS/Include/cmsis_gcc.h **** /**
 434:Drivers/STM32Cube_FW_F1_V1.4.0/CMSIS/Include/cmsis_gcc.h ****   \brief   Data Memory Barrier
 435:Drivers/STM32Cube_FW_F1_V1.4.0/CMSIS/Include/cmsis_gcc.h ****   \details Ensures the apparent order of the explicit memory operations before
 436:Drivers/STM32Cube_FW_F1_V1.4.0/CMSIS/Include/cmsis_gcc.h ****            and after the instruction, without ensuring their completion.
 437:Drivers/STM32Cube_FW_F1_V1.4.0/CMSIS/Include/cmsis_gcc.h ****  */
 438:Drivers/STM32Cube_FW_F1_V1.4.0/CMSIS/Include/cmsis_gcc.h **** __attribute__((always_inline)) __STATIC_INLINE void __DMB(void)
 439:Drivers/STM32Cube_FW_F1_V1.4.0/CMSIS/Include/cmsis_gcc.h **** {
 440:Drivers/STM32Cube_FW_F1_V1.4.0/CMSIS/Include/cmsis_gcc.h ****   __ASM volatile ("dmb 0xF":::"memory");
 441:Drivers/STM32Cube_FW_F1_V1.4.0/CMSIS/Include/cmsis_gcc.h **** }
 442:Drivers/STM32Cube_FW_F1_V1.4.0/CMSIS/Include/cmsis_gcc.h **** 
 443:Drivers/STM32Cube_FW_F1_V1.4.0/CMSIS/Include/cmsis_gcc.h **** 
 444:Drivers/STM32Cube_FW_F1_V1.4.0/CMSIS/Include/cmsis_gcc.h **** /**
 445:Drivers/STM32Cube_FW_F1_V1.4.0/CMSIS/Include/cmsis_gcc.h ****   \brief   Reverse byte order (32 bit)
 446:Drivers/STM32Cube_FW_F1_V1.4.0/CMSIS/Include/cmsis_gcc.h ****   \details Reverses the byte order in integer value.
 447:Drivers/STM32Cube_FW_F1_V1.4.0/CMSIS/Include/cmsis_gcc.h ****   \param [in]    value  Value to reverse
 448:Drivers/STM32Cube_FW_F1_V1.4.0/CMSIS/Include/cmsis_gcc.h ****   \return               Reversed value
 449:Drivers/STM32Cube_FW_F1_V1.4.0/CMSIS/Include/cmsis_gcc.h ****  */
 450:Drivers/STM32Cube_FW_F1_V1.4.0/CMSIS/Include/cmsis_gcc.h **** __attribute__((always_inline)) __STATIC_INLINE uint32_t __REV(uint32_t value)
 451:Drivers/STM32Cube_FW_F1_V1.4.0/CMSIS/Include/cmsis_gcc.h **** {
 452:Drivers/STM32Cube_FW_F1_V1.4.0/CMSIS/Include/cmsis_gcc.h **** #if (__GNUC__ > 4) || (__GNUC__ == 4 && __GNUC_MINOR__ >= 5)
 453:Drivers/STM32Cube_FW_F1_V1.4.0/CMSIS/Include/cmsis_gcc.h ****   return __builtin_bswap32(value);
 454:Drivers/STM32Cube_FW_F1_V1.4.0/CMSIS/Include/cmsis_gcc.h **** #else
 455:Drivers/STM32Cube_FW_F1_V1.4.0/CMSIS/Include/cmsis_gcc.h ****   uint32_t result;
 456:Drivers/STM32Cube_FW_F1_V1.4.0/CMSIS/Include/cmsis_gcc.h **** 
 457:Drivers/STM32Cube_FW_F1_V1.4.0/CMSIS/Include/cmsis_gcc.h ****   __ASM volatile ("rev %0, %1" : __CMSIS_GCC_OUT_REG (result) : __CMSIS_GCC_USE_REG (value) );
 458:Drivers/STM32Cube_FW_F1_V1.4.0/CMSIS/Include/cmsis_gcc.h ****   return(result);
 459:Drivers/STM32Cube_FW_F1_V1.4.0/CMSIS/Include/cmsis_gcc.h **** #endif
 460:Drivers/STM32Cube_FW_F1_V1.4.0/CMSIS/Include/cmsis_gcc.h **** }
 461:Drivers/STM32Cube_FW_F1_V1.4.0/CMSIS/Include/cmsis_gcc.h **** 
 462:Drivers/STM32Cube_FW_F1_V1.4.0/CMSIS/Include/cmsis_gcc.h **** 
 463:Drivers/STM32Cube_FW_F1_V1.4.0/CMSIS/Include/cmsis_gcc.h **** /**
 464:Drivers/STM32Cube_FW_F1_V1.4.0/CMSIS/Include/cmsis_gcc.h ****   \brief   Reverse byte order (16 bit)
 465:Drivers/STM32Cube_FW_F1_V1.4.0/CMSIS/Include/cmsis_gcc.h ****   \details Reverses the byte order in two unsigned short values.
 466:Drivers/STM32Cube_FW_F1_V1.4.0/CMSIS/Include/cmsis_gcc.h ****   \param [in]    value  Value to reverse
 467:Drivers/STM32Cube_FW_F1_V1.4.0/CMSIS/Include/cmsis_gcc.h ****   \return               Reversed value
 468:Drivers/STM32Cube_FW_F1_V1.4.0/CMSIS/Include/cmsis_gcc.h ****  */
 469:Drivers/STM32Cube_FW_F1_V1.4.0/CMSIS/Include/cmsis_gcc.h **** __attribute__((always_inline)) __STATIC_INLINE uint32_t __REV16(uint32_t value)
 470:Drivers/STM32Cube_FW_F1_V1.4.0/CMSIS/Include/cmsis_gcc.h **** {
 471:Drivers/STM32Cube_FW_F1_V1.4.0/CMSIS/Include/cmsis_gcc.h ****   uint32_t result;
 472:Drivers/STM32Cube_FW_F1_V1.4.0/CMSIS/Include/cmsis_gcc.h **** 
 473:Drivers/STM32Cube_FW_F1_V1.4.0/CMSIS/Include/cmsis_gcc.h ****   __ASM volatile ("rev16 %0, %1" : __CMSIS_GCC_OUT_REG (result) : __CMSIS_GCC_USE_REG (value) );
 474:Drivers/STM32Cube_FW_F1_V1.4.0/CMSIS/Include/cmsis_gcc.h ****   return(result);
 475:Drivers/STM32Cube_FW_F1_V1.4.0/CMSIS/Include/cmsis_gcc.h **** }
 476:Drivers/STM32Cube_FW_F1_V1.4.0/CMSIS/Include/cmsis_gcc.h **** 
 477:Drivers/STM32Cube_FW_F1_V1.4.0/CMSIS/Include/cmsis_gcc.h **** 
 478:Drivers/STM32Cube_FW_F1_V1.4.0/CMSIS/Include/cmsis_gcc.h **** /**
 479:Drivers/STM32Cube_FW_F1_V1.4.0/CMSIS/Include/cmsis_gcc.h ****   \brief   Reverse byte order in signed short value
 480:Drivers/STM32Cube_FW_F1_V1.4.0/CMSIS/Include/cmsis_gcc.h ****   \details Reverses the byte order in a signed short value with sign extension to integer.
 481:Drivers/STM32Cube_FW_F1_V1.4.0/CMSIS/Include/cmsis_gcc.h ****   \param [in]    value  Value to reverse
 482:Drivers/STM32Cube_FW_F1_V1.4.0/CMSIS/Include/cmsis_gcc.h ****   \return               Reversed value
 483:Drivers/STM32Cube_FW_F1_V1.4.0/CMSIS/Include/cmsis_gcc.h ****  */
ARM GAS  /tmp/ccV4uqBd.s 			page 23


 484:Drivers/STM32Cube_FW_F1_V1.4.0/CMSIS/Include/cmsis_gcc.h **** __attribute__((always_inline)) __STATIC_INLINE int32_t __REVSH(int32_t value)
 485:Drivers/STM32Cube_FW_F1_V1.4.0/CMSIS/Include/cmsis_gcc.h **** {
 486:Drivers/STM32Cube_FW_F1_V1.4.0/CMSIS/Include/cmsis_gcc.h **** #if (__GNUC__ > 4) || (__GNUC__ == 4 && __GNUC_MINOR__ >= 8)
 487:Drivers/STM32Cube_FW_F1_V1.4.0/CMSIS/Include/cmsis_gcc.h ****   return (short)__builtin_bswap16(value);
 488:Drivers/STM32Cube_FW_F1_V1.4.0/CMSIS/Include/cmsis_gcc.h **** #else
 489:Drivers/STM32Cube_FW_F1_V1.4.0/CMSIS/Include/cmsis_gcc.h ****   int32_t result;
 490:Drivers/STM32Cube_FW_F1_V1.4.0/CMSIS/Include/cmsis_gcc.h **** 
 491:Drivers/STM32Cube_FW_F1_V1.4.0/CMSIS/Include/cmsis_gcc.h ****   __ASM volatile ("revsh %0, %1" : __CMSIS_GCC_OUT_REG (result) : __CMSIS_GCC_USE_REG (value) );
 492:Drivers/STM32Cube_FW_F1_V1.4.0/CMSIS/Include/cmsis_gcc.h ****   return(result);
 493:Drivers/STM32Cube_FW_F1_V1.4.0/CMSIS/Include/cmsis_gcc.h **** #endif
 494:Drivers/STM32Cube_FW_F1_V1.4.0/CMSIS/Include/cmsis_gcc.h **** }
 495:Drivers/STM32Cube_FW_F1_V1.4.0/CMSIS/Include/cmsis_gcc.h **** 
 496:Drivers/STM32Cube_FW_F1_V1.4.0/CMSIS/Include/cmsis_gcc.h **** 
 497:Drivers/STM32Cube_FW_F1_V1.4.0/CMSIS/Include/cmsis_gcc.h **** /**
 498:Drivers/STM32Cube_FW_F1_V1.4.0/CMSIS/Include/cmsis_gcc.h ****   \brief   Rotate Right in unsigned value (32 bit)
 499:Drivers/STM32Cube_FW_F1_V1.4.0/CMSIS/Include/cmsis_gcc.h ****   \details Rotate Right (immediate) provides the value of the contents of a register rotated by a v
 500:Drivers/STM32Cube_FW_F1_V1.4.0/CMSIS/Include/cmsis_gcc.h ****   \param [in]    value  Value to rotate
 501:Drivers/STM32Cube_FW_F1_V1.4.0/CMSIS/Include/cmsis_gcc.h ****   \param [in]    value  Number of Bits to rotate
 502:Drivers/STM32Cube_FW_F1_V1.4.0/CMSIS/Include/cmsis_gcc.h ****   \return               Rotated value
 503:Drivers/STM32Cube_FW_F1_V1.4.0/CMSIS/Include/cmsis_gcc.h ****  */
 504:Drivers/STM32Cube_FW_F1_V1.4.0/CMSIS/Include/cmsis_gcc.h **** __attribute__((always_inline)) __STATIC_INLINE uint32_t __ROR(uint32_t op1, uint32_t op2)
 505:Drivers/STM32Cube_FW_F1_V1.4.0/CMSIS/Include/cmsis_gcc.h **** {
 506:Drivers/STM32Cube_FW_F1_V1.4.0/CMSIS/Include/cmsis_gcc.h ****   return (op1 >> op2) | (op1 << (32U - op2));
 507:Drivers/STM32Cube_FW_F1_V1.4.0/CMSIS/Include/cmsis_gcc.h **** }
 508:Drivers/STM32Cube_FW_F1_V1.4.0/CMSIS/Include/cmsis_gcc.h **** 
 509:Drivers/STM32Cube_FW_F1_V1.4.0/CMSIS/Include/cmsis_gcc.h **** 
 510:Drivers/STM32Cube_FW_F1_V1.4.0/CMSIS/Include/cmsis_gcc.h **** /**
 511:Drivers/STM32Cube_FW_F1_V1.4.0/CMSIS/Include/cmsis_gcc.h ****   \brief   Breakpoint
 512:Drivers/STM32Cube_FW_F1_V1.4.0/CMSIS/Include/cmsis_gcc.h ****   \details Causes the processor to enter Debug state.
 513:Drivers/STM32Cube_FW_F1_V1.4.0/CMSIS/Include/cmsis_gcc.h ****            Debug tools can use this to investigate system state when the instruction at a particula
 514:Drivers/STM32Cube_FW_F1_V1.4.0/CMSIS/Include/cmsis_gcc.h ****   \param [in]    value  is ignored by the processor.
 515:Drivers/STM32Cube_FW_F1_V1.4.0/CMSIS/Include/cmsis_gcc.h ****                  If required, a debugger can use it to store additional information about the break
 516:Drivers/STM32Cube_FW_F1_V1.4.0/CMSIS/Include/cmsis_gcc.h ****  */
 517:Drivers/STM32Cube_FW_F1_V1.4.0/CMSIS/Include/cmsis_gcc.h **** #define __BKPT(value)                       __ASM volatile ("bkpt "#value)
 518:Drivers/STM32Cube_FW_F1_V1.4.0/CMSIS/Include/cmsis_gcc.h **** 
 519:Drivers/STM32Cube_FW_F1_V1.4.0/CMSIS/Include/cmsis_gcc.h **** 
 520:Drivers/STM32Cube_FW_F1_V1.4.0/CMSIS/Include/cmsis_gcc.h **** /**
 521:Drivers/STM32Cube_FW_F1_V1.4.0/CMSIS/Include/cmsis_gcc.h ****   \brief   Reverse bit order of value
 522:Drivers/STM32Cube_FW_F1_V1.4.0/CMSIS/Include/cmsis_gcc.h ****   \details Reverses the bit order of the given value.
 523:Drivers/STM32Cube_FW_F1_V1.4.0/CMSIS/Include/cmsis_gcc.h ****   \param [in]    value  Value to reverse
 524:Drivers/STM32Cube_FW_F1_V1.4.0/CMSIS/Include/cmsis_gcc.h ****   \return               Reversed value
 525:Drivers/STM32Cube_FW_F1_V1.4.0/CMSIS/Include/cmsis_gcc.h ****  */
 526:Drivers/STM32Cube_FW_F1_V1.4.0/CMSIS/Include/cmsis_gcc.h **** __attribute__((always_inline)) __STATIC_INLINE uint32_t __RBIT(uint32_t value)
 527:Drivers/STM32Cube_FW_F1_V1.4.0/CMSIS/Include/cmsis_gcc.h **** {
 528:Drivers/STM32Cube_FW_F1_V1.4.0/CMSIS/Include/cmsis_gcc.h ****   uint32_t result;
 529:Drivers/STM32Cube_FW_F1_V1.4.0/CMSIS/Include/cmsis_gcc.h **** 
 530:Drivers/STM32Cube_FW_F1_V1.4.0/CMSIS/Include/cmsis_gcc.h **** #if       (__CORTEX_M >= 0x03U) || (__CORTEX_SC >= 300U)
 531:Drivers/STM32Cube_FW_F1_V1.4.0/CMSIS/Include/cmsis_gcc.h ****    __ASM volatile ("rbit %0, %1" : "=r" (result) : "r" (value) );
 394              		.loc 2 531 0
 395 0004 044B     		ldr	r3, .L34+4
 396              		.syntax unified
 397              	@ 531 "Drivers/STM32Cube_FW_F1_V1.4.0/CMSIS/Include/cmsis_gcc.h" 1
 398 0006 93FAA3F3 		rbit r3, r3
 399              	@ 0 "" 2
 400              	.LVL15:
 401              		.thumb
 402              		.syntax unified
ARM GAS  /tmp/ccV4uqBd.s 			page 24


 403              	.LBE5:
 404              	.LBE4:
 405              		.loc 1 387 0
 406 000a B3FA83F3 		clz	r3, r3
 388:Drivers/STM32Cube_FW_F1_V1.4.0/STM32F1xx_HAL_Driver/Src/stm32f1xx_hal.c **** }
 407              		.loc 1 388 0
 408 000e D840     		lsrs	r0, r0, r3
 409 0010 7047     		bx	lr
 410              	.L35:
 411 0012 00BF     		.align	2
 412              	.L34:
 413 0014 002004E0 		.word	-536600576
 414 0018 0000FFFF 		.word	-65536
 415              		.cfi_endproc
 416              	.LFE75:
 418              		.section	.text.HAL_GetDEVID,"ax",%progbits
 419              		.align	1
 420              		.global	HAL_GetDEVID
 421              		.syntax unified
 422              		.thumb
 423              		.thumb_func
 424              		.fpu softvfp
 426              	HAL_GetDEVID:
 427              	.LFB76:
 389:Drivers/STM32Cube_FW_F1_V1.4.0/STM32F1xx_HAL_Driver/Src/stm32f1xx_hal.c **** 
 390:Drivers/STM32Cube_FW_F1_V1.4.0/STM32F1xx_HAL_Driver/Src/stm32f1xx_hal.c **** /**
 391:Drivers/STM32Cube_FW_F1_V1.4.0/STM32F1xx_HAL_Driver/Src/stm32f1xx_hal.c ****   * @brief  Returns the device identifier.
 392:Drivers/STM32Cube_FW_F1_V1.4.0/STM32F1xx_HAL_Driver/Src/stm32f1xx_hal.c ****   * Note: On devices STM32F10xx8 and STM32F10xxB,
 393:Drivers/STM32Cube_FW_F1_V1.4.0/STM32F1xx_HAL_Driver/Src/stm32f1xx_hal.c ****   *                  STM32F101xC/D/E and STM32F103xC/D/E,
 394:Drivers/STM32Cube_FW_F1_V1.4.0/STM32F1xx_HAL_Driver/Src/stm32f1xx_hal.c ****   *                  STM32F101xF/G and STM32F103xF/G
 395:Drivers/STM32Cube_FW_F1_V1.4.0/STM32F1xx_HAL_Driver/Src/stm32f1xx_hal.c ****   *                  STM32F10xx4 and STM32F10xx6
 396:Drivers/STM32Cube_FW_F1_V1.4.0/STM32F1xx_HAL_Driver/Src/stm32f1xx_hal.c ****   *       Debug registers DBGMCU_IDCODE and DBGMCU_CR are accessible only in 
 397:Drivers/STM32Cube_FW_F1_V1.4.0/STM32F1xx_HAL_Driver/Src/stm32f1xx_hal.c ****   *       debug mode (not accessible by the user software in normal mode).
 398:Drivers/STM32Cube_FW_F1_V1.4.0/STM32F1xx_HAL_Driver/Src/stm32f1xx_hal.c ****   *       Refer to errata sheet of these devices for more details.
 399:Drivers/STM32Cube_FW_F1_V1.4.0/STM32F1xx_HAL_Driver/Src/stm32f1xx_hal.c ****   * @retval Device identifier
 400:Drivers/STM32Cube_FW_F1_V1.4.0/STM32F1xx_HAL_Driver/Src/stm32f1xx_hal.c ****   */
 401:Drivers/STM32Cube_FW_F1_V1.4.0/STM32F1xx_HAL_Driver/Src/stm32f1xx_hal.c **** uint32_t HAL_GetDEVID(void)
 402:Drivers/STM32Cube_FW_F1_V1.4.0/STM32F1xx_HAL_Driver/Src/stm32f1xx_hal.c **** {
 428              		.loc 1 402 0
 429              		.cfi_startproc
 430              		@ args = 0, pretend = 0, frame = 0
 431              		@ frame_needed = 0, uses_anonymous_args = 0
 432              		@ link register save eliminated.
 403:Drivers/STM32Cube_FW_F1_V1.4.0/STM32F1xx_HAL_Driver/Src/stm32f1xx_hal.c ****    return((DBGMCU->IDCODE) & IDCODE_DEVID_MASK);
 433              		.loc 1 403 0
 434 0000 024B     		ldr	r3, .L37
 435 0002 1868     		ldr	r0, [r3]
 404:Drivers/STM32Cube_FW_F1_V1.4.0/STM32F1xx_HAL_Driver/Src/stm32f1xx_hal.c **** }
 436              		.loc 1 404 0
 437 0004 C0F30B00 		ubfx	r0, r0, #0, #12
 438 0008 7047     		bx	lr
 439              	.L38:
 440 000a 00BF     		.align	2
 441              	.L37:
 442 000c 002004E0 		.word	-536600576
 443              		.cfi_endproc
 444              	.LFE76:
ARM GAS  /tmp/ccV4uqBd.s 			page 25


 446              		.section	.text.HAL_DBGMCU_EnableDBGSleepMode,"ax",%progbits
 447              		.align	1
 448              		.global	HAL_DBGMCU_EnableDBGSleepMode
 449              		.syntax unified
 450              		.thumb
 451              		.thumb_func
 452              		.fpu softvfp
 454              	HAL_DBGMCU_EnableDBGSleepMode:
 455              	.LFB77:
 405:Drivers/STM32Cube_FW_F1_V1.4.0/STM32F1xx_HAL_Driver/Src/stm32f1xx_hal.c **** 
 406:Drivers/STM32Cube_FW_F1_V1.4.0/STM32F1xx_HAL_Driver/Src/stm32f1xx_hal.c **** /**
 407:Drivers/STM32Cube_FW_F1_V1.4.0/STM32F1xx_HAL_Driver/Src/stm32f1xx_hal.c ****   * @brief  Enable the Debug Module during SLEEP mode
 408:Drivers/STM32Cube_FW_F1_V1.4.0/STM32F1xx_HAL_Driver/Src/stm32f1xx_hal.c ****   * @retval None
 409:Drivers/STM32Cube_FW_F1_V1.4.0/STM32F1xx_HAL_Driver/Src/stm32f1xx_hal.c ****   */
 410:Drivers/STM32Cube_FW_F1_V1.4.0/STM32F1xx_HAL_Driver/Src/stm32f1xx_hal.c **** void HAL_DBGMCU_EnableDBGSleepMode(void)
 411:Drivers/STM32Cube_FW_F1_V1.4.0/STM32F1xx_HAL_Driver/Src/stm32f1xx_hal.c **** {
 456              		.loc 1 411 0
 457              		.cfi_startproc
 458              		@ args = 0, pretend = 0, frame = 0
 459              		@ frame_needed = 0, uses_anonymous_args = 0
 460              		@ link register save eliminated.
 412:Drivers/STM32Cube_FW_F1_V1.4.0/STM32F1xx_HAL_Driver/Src/stm32f1xx_hal.c ****   SET_BIT(DBGMCU->CR, DBGMCU_CR_DBG_SLEEP);
 461              		.loc 1 412 0
 462 0000 024A     		ldr	r2, .L40
 463 0002 5368     		ldr	r3, [r2, #4]
 464 0004 43F00103 		orr	r3, r3, #1
 465 0008 5360     		str	r3, [r2, #4]
 466 000a 7047     		bx	lr
 467              	.L41:
 468              		.align	2
 469              	.L40:
 470 000c 002004E0 		.word	-536600576
 471              		.cfi_endproc
 472              	.LFE77:
 474              		.section	.text.HAL_DBGMCU_DisableDBGSleepMode,"ax",%progbits
 475              		.align	1
 476              		.global	HAL_DBGMCU_DisableDBGSleepMode
 477              		.syntax unified
 478              		.thumb
 479              		.thumb_func
 480              		.fpu softvfp
 482              	HAL_DBGMCU_DisableDBGSleepMode:
 483              	.LFB78:
 413:Drivers/STM32Cube_FW_F1_V1.4.0/STM32F1xx_HAL_Driver/Src/stm32f1xx_hal.c **** }
 414:Drivers/STM32Cube_FW_F1_V1.4.0/STM32F1xx_HAL_Driver/Src/stm32f1xx_hal.c **** 
 415:Drivers/STM32Cube_FW_F1_V1.4.0/STM32F1xx_HAL_Driver/Src/stm32f1xx_hal.c **** /**
 416:Drivers/STM32Cube_FW_F1_V1.4.0/STM32F1xx_HAL_Driver/Src/stm32f1xx_hal.c ****   * @brief  Disable the Debug Module during SLEEP mode
 417:Drivers/STM32Cube_FW_F1_V1.4.0/STM32F1xx_HAL_Driver/Src/stm32f1xx_hal.c ****   * Note: On devices STM32F10xx8 and STM32F10xxB,
 418:Drivers/STM32Cube_FW_F1_V1.4.0/STM32F1xx_HAL_Driver/Src/stm32f1xx_hal.c ****   *                  STM32F101xC/D/E and STM32F103xC/D/E,
 419:Drivers/STM32Cube_FW_F1_V1.4.0/STM32F1xx_HAL_Driver/Src/stm32f1xx_hal.c ****   *                  STM32F101xF/G and STM32F103xF/G
 420:Drivers/STM32Cube_FW_F1_V1.4.0/STM32F1xx_HAL_Driver/Src/stm32f1xx_hal.c ****   *                  STM32F10xx4 and STM32F10xx6
 421:Drivers/STM32Cube_FW_F1_V1.4.0/STM32F1xx_HAL_Driver/Src/stm32f1xx_hal.c ****   *       Debug registers DBGMCU_IDCODE and DBGMCU_CR are accessible only in 
 422:Drivers/STM32Cube_FW_F1_V1.4.0/STM32F1xx_HAL_Driver/Src/stm32f1xx_hal.c ****   *       debug mode (not accessible by the user software in normal mode).
 423:Drivers/STM32Cube_FW_F1_V1.4.0/STM32F1xx_HAL_Driver/Src/stm32f1xx_hal.c ****   *       Refer to errata sheet of these devices for more details.
 424:Drivers/STM32Cube_FW_F1_V1.4.0/STM32F1xx_HAL_Driver/Src/stm32f1xx_hal.c ****   * @retval None
 425:Drivers/STM32Cube_FW_F1_V1.4.0/STM32F1xx_HAL_Driver/Src/stm32f1xx_hal.c ****   */
 426:Drivers/STM32Cube_FW_F1_V1.4.0/STM32F1xx_HAL_Driver/Src/stm32f1xx_hal.c **** void HAL_DBGMCU_DisableDBGSleepMode(void)
ARM GAS  /tmp/ccV4uqBd.s 			page 26


 427:Drivers/STM32Cube_FW_F1_V1.4.0/STM32F1xx_HAL_Driver/Src/stm32f1xx_hal.c **** {
 484              		.loc 1 427 0
 485              		.cfi_startproc
 486              		@ args = 0, pretend = 0, frame = 0
 487              		@ frame_needed = 0, uses_anonymous_args = 0
 488              		@ link register save eliminated.
 428:Drivers/STM32Cube_FW_F1_V1.4.0/STM32F1xx_HAL_Driver/Src/stm32f1xx_hal.c ****   CLEAR_BIT(DBGMCU->CR, DBGMCU_CR_DBG_SLEEP);
 489              		.loc 1 428 0
 490 0000 024A     		ldr	r2, .L43
 491 0002 5368     		ldr	r3, [r2, #4]
 492 0004 23F00103 		bic	r3, r3, #1
 493 0008 5360     		str	r3, [r2, #4]
 494 000a 7047     		bx	lr
 495              	.L44:
 496              		.align	2
 497              	.L43:
 498 000c 002004E0 		.word	-536600576
 499              		.cfi_endproc
 500              	.LFE78:
 502              		.section	.text.HAL_DBGMCU_EnableDBGStopMode,"ax",%progbits
 503              		.align	1
 504              		.global	HAL_DBGMCU_EnableDBGStopMode
 505              		.syntax unified
 506              		.thumb
 507              		.thumb_func
 508              		.fpu softvfp
 510              	HAL_DBGMCU_EnableDBGStopMode:
 511              	.LFB79:
 429:Drivers/STM32Cube_FW_F1_V1.4.0/STM32F1xx_HAL_Driver/Src/stm32f1xx_hal.c **** }
 430:Drivers/STM32Cube_FW_F1_V1.4.0/STM32F1xx_HAL_Driver/Src/stm32f1xx_hal.c **** 
 431:Drivers/STM32Cube_FW_F1_V1.4.0/STM32F1xx_HAL_Driver/Src/stm32f1xx_hal.c **** /**
 432:Drivers/STM32Cube_FW_F1_V1.4.0/STM32F1xx_HAL_Driver/Src/stm32f1xx_hal.c ****   * @brief  Enable the Debug Module during STOP mode
 433:Drivers/STM32Cube_FW_F1_V1.4.0/STM32F1xx_HAL_Driver/Src/stm32f1xx_hal.c ****   * Note: On devices STM32F10xx8 and STM32F10xxB,
 434:Drivers/STM32Cube_FW_F1_V1.4.0/STM32F1xx_HAL_Driver/Src/stm32f1xx_hal.c ****   *                  STM32F101xC/D/E and STM32F103xC/D/E,
 435:Drivers/STM32Cube_FW_F1_V1.4.0/STM32F1xx_HAL_Driver/Src/stm32f1xx_hal.c ****   *                  STM32F101xF/G and STM32F103xF/G
 436:Drivers/STM32Cube_FW_F1_V1.4.0/STM32F1xx_HAL_Driver/Src/stm32f1xx_hal.c ****   *                  STM32F10xx4 and STM32F10xx6
 437:Drivers/STM32Cube_FW_F1_V1.4.0/STM32F1xx_HAL_Driver/Src/stm32f1xx_hal.c ****   *       Debug registers DBGMCU_IDCODE and DBGMCU_CR are accessible only in 
 438:Drivers/STM32Cube_FW_F1_V1.4.0/STM32F1xx_HAL_Driver/Src/stm32f1xx_hal.c ****   *       debug mode (not accessible by the user software in normal mode).
 439:Drivers/STM32Cube_FW_F1_V1.4.0/STM32F1xx_HAL_Driver/Src/stm32f1xx_hal.c ****   *       Refer to errata sheet of these devices for more details.
 440:Drivers/STM32Cube_FW_F1_V1.4.0/STM32F1xx_HAL_Driver/Src/stm32f1xx_hal.c ****   * Note: On all STM32F1 devices:
 441:Drivers/STM32Cube_FW_F1_V1.4.0/STM32F1xx_HAL_Driver/Src/stm32f1xx_hal.c ****   *       If the system tick timer interrupt is enabled during the Stop mode 
 442:Drivers/STM32Cube_FW_F1_V1.4.0/STM32F1xx_HAL_Driver/Src/stm32f1xx_hal.c ****   *       debug (DBG_STOP bit set in the DBGMCU_CR register ), it will wakeup
 443:Drivers/STM32Cube_FW_F1_V1.4.0/STM32F1xx_HAL_Driver/Src/stm32f1xx_hal.c ****   *       the system from Stop mode.
 444:Drivers/STM32Cube_FW_F1_V1.4.0/STM32F1xx_HAL_Driver/Src/stm32f1xx_hal.c ****   *       Workaround: To debug the Stop mode, disable the system tick timer 
 445:Drivers/STM32Cube_FW_F1_V1.4.0/STM32F1xx_HAL_Driver/Src/stm32f1xx_hal.c ****   *       interrupt.
 446:Drivers/STM32Cube_FW_F1_V1.4.0/STM32F1xx_HAL_Driver/Src/stm32f1xx_hal.c ****   *       Refer to errata sheet of these devices for more details.
 447:Drivers/STM32Cube_FW_F1_V1.4.0/STM32F1xx_HAL_Driver/Src/stm32f1xx_hal.c ****   * Note: On all STM32F1 devices:
 448:Drivers/STM32Cube_FW_F1_V1.4.0/STM32F1xx_HAL_Driver/Src/stm32f1xx_hal.c ****   *       If the system tick timer interrupt is enabled during the Stop mode  
 449:Drivers/STM32Cube_FW_F1_V1.4.0/STM32F1xx_HAL_Driver/Src/stm32f1xx_hal.c ****   *       debug (DBG_STOP bit set in the DBGMCU_CR register ), it will wakeup
 450:Drivers/STM32Cube_FW_F1_V1.4.0/STM32F1xx_HAL_Driver/Src/stm32f1xx_hal.c ****   *       the system from Stop mode.
 451:Drivers/STM32Cube_FW_F1_V1.4.0/STM32F1xx_HAL_Driver/Src/stm32f1xx_hal.c ****   *       Workaround: To debug the Stop mode, disable the system tick timer
 452:Drivers/STM32Cube_FW_F1_V1.4.0/STM32F1xx_HAL_Driver/Src/stm32f1xx_hal.c ****   *       interrupt.
 453:Drivers/STM32Cube_FW_F1_V1.4.0/STM32F1xx_HAL_Driver/Src/stm32f1xx_hal.c ****   *       Refer to errata sheet of these devices for more details.
 454:Drivers/STM32Cube_FW_F1_V1.4.0/STM32F1xx_HAL_Driver/Src/stm32f1xx_hal.c ****   * @retval None
 455:Drivers/STM32Cube_FW_F1_V1.4.0/STM32F1xx_HAL_Driver/Src/stm32f1xx_hal.c ****   */
 456:Drivers/STM32Cube_FW_F1_V1.4.0/STM32F1xx_HAL_Driver/Src/stm32f1xx_hal.c **** void HAL_DBGMCU_EnableDBGStopMode(void)
 457:Drivers/STM32Cube_FW_F1_V1.4.0/STM32F1xx_HAL_Driver/Src/stm32f1xx_hal.c **** {
ARM GAS  /tmp/ccV4uqBd.s 			page 27


 512              		.loc 1 457 0
 513              		.cfi_startproc
 514              		@ args = 0, pretend = 0, frame = 0
 515              		@ frame_needed = 0, uses_anonymous_args = 0
 516              		@ link register save eliminated.
 458:Drivers/STM32Cube_FW_F1_V1.4.0/STM32F1xx_HAL_Driver/Src/stm32f1xx_hal.c ****   SET_BIT(DBGMCU->CR, DBGMCU_CR_DBG_STOP);
 517              		.loc 1 458 0
 518 0000 024A     		ldr	r2, .L46
 519 0002 5368     		ldr	r3, [r2, #4]
 520 0004 43F00203 		orr	r3, r3, #2
 521 0008 5360     		str	r3, [r2, #4]
 522 000a 7047     		bx	lr
 523              	.L47:
 524              		.align	2
 525              	.L46:
 526 000c 002004E0 		.word	-536600576
 527              		.cfi_endproc
 528              	.LFE79:
 530              		.section	.text.HAL_DBGMCU_DisableDBGStopMode,"ax",%progbits
 531              		.align	1
 532              		.global	HAL_DBGMCU_DisableDBGStopMode
 533              		.syntax unified
 534              		.thumb
 535              		.thumb_func
 536              		.fpu softvfp
 538              	HAL_DBGMCU_DisableDBGStopMode:
 539              	.LFB80:
 459:Drivers/STM32Cube_FW_F1_V1.4.0/STM32F1xx_HAL_Driver/Src/stm32f1xx_hal.c **** }
 460:Drivers/STM32Cube_FW_F1_V1.4.0/STM32F1xx_HAL_Driver/Src/stm32f1xx_hal.c **** 
 461:Drivers/STM32Cube_FW_F1_V1.4.0/STM32F1xx_HAL_Driver/Src/stm32f1xx_hal.c **** /**
 462:Drivers/STM32Cube_FW_F1_V1.4.0/STM32F1xx_HAL_Driver/Src/stm32f1xx_hal.c ****   * @brief  Disable the Debug Module during STOP mode
 463:Drivers/STM32Cube_FW_F1_V1.4.0/STM32F1xx_HAL_Driver/Src/stm32f1xx_hal.c ****   * Note: On devices STM32F10xx8 and STM32F10xxB,
 464:Drivers/STM32Cube_FW_F1_V1.4.0/STM32F1xx_HAL_Driver/Src/stm32f1xx_hal.c ****   *                  STM32F101xC/D/E and STM32F103xC/D/E,
 465:Drivers/STM32Cube_FW_F1_V1.4.0/STM32F1xx_HAL_Driver/Src/stm32f1xx_hal.c ****   *                  STM32F101xF/G and STM32F103xF/G
 466:Drivers/STM32Cube_FW_F1_V1.4.0/STM32F1xx_HAL_Driver/Src/stm32f1xx_hal.c ****   *                  STM32F10xx4 and STM32F10xx6
 467:Drivers/STM32Cube_FW_F1_V1.4.0/STM32F1xx_HAL_Driver/Src/stm32f1xx_hal.c ****   *       Debug registers DBGMCU_IDCODE and DBGMCU_CR are accessible only in 
 468:Drivers/STM32Cube_FW_F1_V1.4.0/STM32F1xx_HAL_Driver/Src/stm32f1xx_hal.c ****   *       debug mode (not accessible by the user software in normal mode).
 469:Drivers/STM32Cube_FW_F1_V1.4.0/STM32F1xx_HAL_Driver/Src/stm32f1xx_hal.c ****   *       Refer to errata sheet of these devices for more details.
 470:Drivers/STM32Cube_FW_F1_V1.4.0/STM32F1xx_HAL_Driver/Src/stm32f1xx_hal.c ****   * @retval None
 471:Drivers/STM32Cube_FW_F1_V1.4.0/STM32F1xx_HAL_Driver/Src/stm32f1xx_hal.c ****   */
 472:Drivers/STM32Cube_FW_F1_V1.4.0/STM32F1xx_HAL_Driver/Src/stm32f1xx_hal.c **** void HAL_DBGMCU_DisableDBGStopMode(void)
 473:Drivers/STM32Cube_FW_F1_V1.4.0/STM32F1xx_HAL_Driver/Src/stm32f1xx_hal.c **** {
 540              		.loc 1 473 0
 541              		.cfi_startproc
 542              		@ args = 0, pretend = 0, frame = 0
 543              		@ frame_needed = 0, uses_anonymous_args = 0
 544              		@ link register save eliminated.
 474:Drivers/STM32Cube_FW_F1_V1.4.0/STM32F1xx_HAL_Driver/Src/stm32f1xx_hal.c ****   CLEAR_BIT(DBGMCU->CR, DBGMCU_CR_DBG_STOP);
 545              		.loc 1 474 0
 546 0000 024A     		ldr	r2, .L49
 547 0002 5368     		ldr	r3, [r2, #4]
 548 0004 23F00203 		bic	r3, r3, #2
 549 0008 5360     		str	r3, [r2, #4]
 550 000a 7047     		bx	lr
 551              	.L50:
 552              		.align	2
 553              	.L49:
ARM GAS  /tmp/ccV4uqBd.s 			page 28


 554 000c 002004E0 		.word	-536600576
 555              		.cfi_endproc
 556              	.LFE80:
 558              		.section	.text.HAL_DBGMCU_EnableDBGStandbyMode,"ax",%progbits
 559              		.align	1
 560              		.global	HAL_DBGMCU_EnableDBGStandbyMode
 561              		.syntax unified
 562              		.thumb
 563              		.thumb_func
 564              		.fpu softvfp
 566              	HAL_DBGMCU_EnableDBGStandbyMode:
 567              	.LFB81:
 475:Drivers/STM32Cube_FW_F1_V1.4.0/STM32F1xx_HAL_Driver/Src/stm32f1xx_hal.c **** }
 476:Drivers/STM32Cube_FW_F1_V1.4.0/STM32F1xx_HAL_Driver/Src/stm32f1xx_hal.c **** 
 477:Drivers/STM32Cube_FW_F1_V1.4.0/STM32F1xx_HAL_Driver/Src/stm32f1xx_hal.c **** /**
 478:Drivers/STM32Cube_FW_F1_V1.4.0/STM32F1xx_HAL_Driver/Src/stm32f1xx_hal.c ****   * @brief  Enable the Debug Module during STANDBY mode
 479:Drivers/STM32Cube_FW_F1_V1.4.0/STM32F1xx_HAL_Driver/Src/stm32f1xx_hal.c ****   * Note: On devices STM32F10xx8 and STM32F10xxB,
 480:Drivers/STM32Cube_FW_F1_V1.4.0/STM32F1xx_HAL_Driver/Src/stm32f1xx_hal.c ****   *                  STM32F101xC/D/E and STM32F103xC/D/E,
 481:Drivers/STM32Cube_FW_F1_V1.4.0/STM32F1xx_HAL_Driver/Src/stm32f1xx_hal.c ****   *                  STM32F101xF/G and STM32F103xF/G
 482:Drivers/STM32Cube_FW_F1_V1.4.0/STM32F1xx_HAL_Driver/Src/stm32f1xx_hal.c ****   *                  STM32F10xx4 and STM32F10xx6
 483:Drivers/STM32Cube_FW_F1_V1.4.0/STM32F1xx_HAL_Driver/Src/stm32f1xx_hal.c ****   *       Debug registers DBGMCU_IDCODE and DBGMCU_CR are accessible only in 
 484:Drivers/STM32Cube_FW_F1_V1.4.0/STM32F1xx_HAL_Driver/Src/stm32f1xx_hal.c ****   *       debug mode (not accessible by the user software in normal mode).
 485:Drivers/STM32Cube_FW_F1_V1.4.0/STM32F1xx_HAL_Driver/Src/stm32f1xx_hal.c ****   *       Refer to errata sheet of these devices for more details.
 486:Drivers/STM32Cube_FW_F1_V1.4.0/STM32F1xx_HAL_Driver/Src/stm32f1xx_hal.c ****   * @retval None
 487:Drivers/STM32Cube_FW_F1_V1.4.0/STM32F1xx_HAL_Driver/Src/stm32f1xx_hal.c ****   */
 488:Drivers/STM32Cube_FW_F1_V1.4.0/STM32F1xx_HAL_Driver/Src/stm32f1xx_hal.c **** void HAL_DBGMCU_EnableDBGStandbyMode(void)
 489:Drivers/STM32Cube_FW_F1_V1.4.0/STM32F1xx_HAL_Driver/Src/stm32f1xx_hal.c **** {
 568              		.loc 1 489 0
 569              		.cfi_startproc
 570              		@ args = 0, pretend = 0, frame = 0
 571              		@ frame_needed = 0, uses_anonymous_args = 0
 572              		@ link register save eliminated.
 490:Drivers/STM32Cube_FW_F1_V1.4.0/STM32F1xx_HAL_Driver/Src/stm32f1xx_hal.c ****   SET_BIT(DBGMCU->CR, DBGMCU_CR_DBG_STANDBY);
 573              		.loc 1 490 0
 574 0000 024A     		ldr	r2, .L52
 575 0002 5368     		ldr	r3, [r2, #4]
 576 0004 43F00403 		orr	r3, r3, #4
 577 0008 5360     		str	r3, [r2, #4]
 578 000a 7047     		bx	lr
 579              	.L53:
 580              		.align	2
 581              	.L52:
 582 000c 002004E0 		.word	-536600576
 583              		.cfi_endproc
 584              	.LFE81:
 586              		.section	.text.HAL_DBGMCU_DisableDBGStandbyMode,"ax",%progbits
 587              		.align	1
 588              		.global	HAL_DBGMCU_DisableDBGStandbyMode
 589              		.syntax unified
 590              		.thumb
 591              		.thumb_func
 592              		.fpu softvfp
 594              	HAL_DBGMCU_DisableDBGStandbyMode:
 595              	.LFB82:
 491:Drivers/STM32Cube_FW_F1_V1.4.0/STM32F1xx_HAL_Driver/Src/stm32f1xx_hal.c **** }
 492:Drivers/STM32Cube_FW_F1_V1.4.0/STM32F1xx_HAL_Driver/Src/stm32f1xx_hal.c **** 
 493:Drivers/STM32Cube_FW_F1_V1.4.0/STM32F1xx_HAL_Driver/Src/stm32f1xx_hal.c **** /**
ARM GAS  /tmp/ccV4uqBd.s 			page 29


 494:Drivers/STM32Cube_FW_F1_V1.4.0/STM32F1xx_HAL_Driver/Src/stm32f1xx_hal.c ****   * @brief  Disable the Debug Module during STANDBY mode
 495:Drivers/STM32Cube_FW_F1_V1.4.0/STM32F1xx_HAL_Driver/Src/stm32f1xx_hal.c ****   * Note: On devices STM32F10xx8 and STM32F10xxB,
 496:Drivers/STM32Cube_FW_F1_V1.4.0/STM32F1xx_HAL_Driver/Src/stm32f1xx_hal.c ****   *                  STM32F101xC/D/E and STM32F103xC/D/E,
 497:Drivers/STM32Cube_FW_F1_V1.4.0/STM32F1xx_HAL_Driver/Src/stm32f1xx_hal.c ****   *                  STM32F101xF/G and STM32F103xF/G
 498:Drivers/STM32Cube_FW_F1_V1.4.0/STM32F1xx_HAL_Driver/Src/stm32f1xx_hal.c ****   *                  STM32F10xx4 and STM32F10xx6
 499:Drivers/STM32Cube_FW_F1_V1.4.0/STM32F1xx_HAL_Driver/Src/stm32f1xx_hal.c ****   *       Debug registers DBGMCU_IDCODE and DBGMCU_CR are accessible only in 
 500:Drivers/STM32Cube_FW_F1_V1.4.0/STM32F1xx_HAL_Driver/Src/stm32f1xx_hal.c ****   *       debug mode (not accessible by the user software in normal mode).
 501:Drivers/STM32Cube_FW_F1_V1.4.0/STM32F1xx_HAL_Driver/Src/stm32f1xx_hal.c ****   *       Refer to errata sheet of these devices for more details.
 502:Drivers/STM32Cube_FW_F1_V1.4.0/STM32F1xx_HAL_Driver/Src/stm32f1xx_hal.c ****   * @retval None
 503:Drivers/STM32Cube_FW_F1_V1.4.0/STM32F1xx_HAL_Driver/Src/stm32f1xx_hal.c ****   */
 504:Drivers/STM32Cube_FW_F1_V1.4.0/STM32F1xx_HAL_Driver/Src/stm32f1xx_hal.c **** void HAL_DBGMCU_DisableDBGStandbyMode(void)
 505:Drivers/STM32Cube_FW_F1_V1.4.0/STM32F1xx_HAL_Driver/Src/stm32f1xx_hal.c **** {
 596              		.loc 1 505 0
 597              		.cfi_startproc
 598              		@ args = 0, pretend = 0, frame = 0
 599              		@ frame_needed = 0, uses_anonymous_args = 0
 600              		@ link register save eliminated.
 506:Drivers/STM32Cube_FW_F1_V1.4.0/STM32F1xx_HAL_Driver/Src/stm32f1xx_hal.c ****   CLEAR_BIT(DBGMCU->CR, DBGMCU_CR_DBG_STANDBY);
 601              		.loc 1 506 0
 602 0000 024A     		ldr	r2, .L55
 603 0002 5368     		ldr	r3, [r2, #4]
 604 0004 23F00403 		bic	r3, r3, #4
 605 0008 5360     		str	r3, [r2, #4]
 606 000a 7047     		bx	lr
 607              	.L56:
 608              		.align	2
 609              	.L55:
 610 000c 002004E0 		.word	-536600576
 611              		.cfi_endproc
 612              	.LFE82:
 614              		.section	.bss.uwTick,"aw",%nobits
 615              		.align	2
 616              		.set	.LANCHOR0,. + 0
 619              	uwTick:
 620 0000 00000000 		.space	4
 621              		.text
 622              	.Letext0:
 623              		.file 3 "/usr/arm-none-eabi/include/machine/_default_types.h"
 624              		.file 4 "/usr/arm-none-eabi/include/sys/_stdint.h"
 625              		.file 5 "Drivers/STM32Cube_FW_F1_V1.4.0/CMSIS/Include/core_cm3.h"
 626              		.file 6 "Drivers/STM32Cube_FW_F1_V1.4.0/CMSIS/Device/STM32F1xx/Include/system_stm32f1xx.h"
 627              		.file 7 "Drivers/STM32Cube_FW_F1_V1.4.0/CMSIS/Device/STM32F1xx/Include/stm32f103xb.h"
 628              		.file 8 "/usr/arm-none-eabi/include/sys/lock.h"
 629              		.file 9 "/usr/arm-none-eabi/include/sys/_types.h"
 630              		.file 10 "/usr/lib/gcc/arm-none-eabi/6.3.1/include/stddef.h"
 631              		.file 11 "/usr/arm-none-eabi/include/sys/reent.h"
 632              		.file 12 "Drivers/STM32Cube_FW_F1_V1.4.0/STM32F1xx_HAL_Driver/Inc/stm32f1xx_hal_def.h"
 633              		.file 13 "Drivers/STM32Cube_FW_F1_V1.4.0/STM32F1xx_HAL_Driver/Inc/stm32f1xx_hal_rcc.h"
 634              		.file 14 "Drivers/STM32Cube_FW_F1_V1.4.0/STM32F1xx_HAL_Driver/Inc/stm32f1xx_hal_cortex.h"
ARM GAS  /tmp/ccV4uqBd.s 			page 30

